(lp0
(lp1
I2
aI3
aI2
aI3
aI3
aI4
aI3
aI3
aI5
aI4
aI3
aI4
aI5
aI4
aI4
aI5
aI5
aI5
aI5
aI5
aI5
aI5
aI6
aI5
aI6
aI6
aI7
aI0
aI0
aI1
aI1
aI2
aI2
aI1
aI1
aI1
aI1
aI0
aI0
aI1
aI0
aI6
aI5
aI5
aI6
aI6
aI6
aI6
aI7
aI7
aI0
aI0
aI0
aI0
aI1
aI1
aI2
aI1
aI2
aa(lp2
I2
aI2
aI2
aI3
aI4
aI4
aI4
aI4
aI4
aI4
aI4
aI4
aI4
aI4
aI3
aI2
aI1
aI2
aI3
aI3
aI4
aI5
aI6
aI6
aI5
aI6
aI5
aI0
aa(lp3
I3
aI4
aI4
aI4
aI4
aI4
aI3
aI2
aI2
aI2
aI2
aI3
aI3
aI5
aI5
aI6
aI6
aI7
aI6
aI5
aI4
aI4
aI4
aI4
aI4
aI4
aI4
aI4
aI5
aI5
aI7
aI0
aI0
aI0
aI0
aI0
aI0
aI0
aI0
aI0
aI5
aI6
aI6
aI6
aI5
aI6
aI5
aI6
aI5
aI5
aI7
aI0
aI0
aI1
aI0
aI1
aI0
aI0
aI1
aI1
aI0
aI1
aI0
aI1
aI2
aI3
aI4
aI5
aI4
aI5
aI4
aI3
aI2
aI2
aI2
aI1
aI0
aI0
aI0
aI0
aI0
aI0
aI1
aa(lp4
I3
aI3
aI4
aI4
aI5
aI5
aI5
aI5
aI4
aI3
aI2
aI1
aI1
aI1
aI1
aI1
aI1
aI1
aI2
aI1
aI1
aI3
aI3
aI4
aI5
aI5
aI5
aI4
aI3
aI4
aI5
aI5
aI5
aI6
aI5
aI6
aI6
aI5
aI6
aI5
aI4
aI5
aI5
aI5
aI5
aI6
aI7
aI7
aI0
aI0
aI1
aI0
aI7
aI7
aI7
aI0
aI0
aI0
aI1
aI1
aI0
aI1
aI2
aI1
aI1
aI1
aI1
aa(lp5
I2
aI3
aI3
aI2
aI2
aI1
aI2
aI2
aI2
aI2
aI2
aI3
aI4
aI5
aI4
aI5
aI6
aI5
aI4
aI3
aI3
aI4
aI3
aI4
aI4
aI5
aI4
aI5
aI5
aI5
aI5
aI6
aI5
aI6
aI6
aI6
aI7
aI6
aI7
aI7
aI0
aI0
aI1
aI2
aI3
aI3
aI3
aI2
aI1
aI2
aI1
aI0
aI1
aI0
aI0
aI0
aI6
aI6
aI6
aI6
aI5
aI6
aI6
aI6
aI7
aI0
aI1
aI1
aI2
aI2
aI1
aI2
aI1
aI0
aI2
aa(lp6
I2
aI2
aI2
aI3
aI3
aI5
aI4
aI5
aI5
aI4
aI5
aI3
aI3
aI4
aI4
aI4
aI3
aI4
aI5
aI4
aI4
aI5
aI6
aI5
aI6
aI5
aI6
aI6
aI6
aI6
aI7
aI6
aI7
aI6
aI7
aI7
aI0
aI1
aI1
aI2
aI2
aI3
aI4
aI3
aI2
aI2
aI3
aI2
aI1
aI2
aI1
aI0
aI0
aI7
aI0
aI0
aI7
aI5
aI5
aI6
aI6
aI7
aI1
aI0
aI1
aI2
aI1
aI1
aI0
aI1
aI2
aI5
aa(lp7
I3
aI2
aI3
aI2
aI3
aI2
aI3
aI3
aI3
aI3
aI3
aI4
aI3
aI4
aI4
aI5
aI5
aI5
aI5
aI6
aI5
aI3
aI4
aI5
aI7
aI7
aI6
aI5
aI6
aI5
aI6
aI6
aI6
aI6
aI6
aI6
aI6
aI6
aI7
aI0
aI0
aI0
aI0
aI0
aI1
aI2
aI1
aI2
aI2
aI1
aI2
aI2
aI3
aI2
aI3
aI2
aI3
aI2
aI1
aI1
aI2
aI1
aI0
aI7
aI0
aI7
aI7
aI0
aI6
aI6
aI7
aI6
aI6
aI7
aI7
aI0
aa(lp8
I2
aI2
aI3
aI5
aI5
aI6
aI5
aI6
aI5
aI6
aI5
aI4
aI4
aI3
aI2
aI2
aI2
aI2
aI2
aI3
aI2
aI3
aI4
aI3
aI4
aI4
aI5
aI5
aI5
aI5
aI5
aI6
aI5
aI6
aI6
aI7
aI7
aI7
aI0
aI1
aI1
aI3
aI4
aI3
aI2
aI1
aI2
aI1
aI1
aI0
aI0
aI7
aI6
aI6
aI6
aI6
aI6
aI5
aI6
aI5
aI7
aI0
aI0
aI0
aI0
aI0
aI1
aI0
aI0
aI1
aI1
aI2
aI1
aI2
aI1
aa(lp9
I2
aI2
aI2
aI2
aI3
aI3
aI3
aI4
aI4
aI4
aI4
aI5
aI4
aI5
aI5
aI4
aI5
aI5
aI4
aI5
aI5
aI5
aI4
aI4
aI5
aI6
aI6
aI6
aI7
aI0
aI0
aI1
aI0
aI1
aI1
aI1
aI1
aI1
aI0
aI1
aI1
aI0
aI1
aI0
aI7
aI6
aI6
aI6
aI5
aI6
aI6
aI5
aI6
aI5
aI5
aI5
aI7
aI7
aI0
aI0
aI1
aI1
aI2
aI1
aI1
aI2
aI2
aI2
aI2
aI2
aa(lp10
I2
aI3
aI3
aI5
aI4
aI4
aI4
aI5
aI4
aI4
aI5
aI4
aI3
aI2
aI2
aI1
aI2
aI3
aI3
aI4
aI3
aI5
aI4
aI5
aI5
aI5
aI6
aI6
aI5
aI6
aI6
aI6
aI6
aI6
aI7
aI7
aI7
aI0
aI0
aI0
aI1
aI0
aI1
aI0
aI0
aI1
aI0
aI0
aI1
aI0
aI1
aI0
aI1
aI0
aa(lp11
I2
aI2
aI2
aI3
aI3
aI4
aI4
aI4
aI3
aI4
aI4
aI4
aI5
aI4
aI5
aI4
aI5
aI5
aI5
aI3
aI2
aI2
aI2
aI2
aI2
aI2
aI2
aI2
aI2
aI2
aI3
aI4
aI4
aI5
aI6
aI6
aI6
aI6
aI6
aI7
aI6
aI6
aI6
aI6
aI6
aI5
aI6
aI6
aI7
aI6
aI6
aI7
aI0
aI1
aI1
aI2
aI1
aI0
aI1
aI1
aI1
aI0
aI0
aI1
aI0
aI0
aI0
aI0
aI6
aI6
aI5
aI6
aI7
aI0
aI0
aI1
aI2
aa(lp12
I2
aI2
aI2
aI2
aI2
aI3
aI3
aI2
aI3
aI4
aI3
aI4
aI3
aI4
aI4
aI4
aI5
aI5
aI6
aI5
aI5
aI6
aI5
aI6
aI5
aI6
aI5
aI6
aI6
aI6
aI6
aI6
aI6
aI6
aI6
aI6
aI7
aI0
aI0
aI0
aI0
aI1
aI0
aI1
aI0
aI1
aI0
aI1
aI1
aI1
aI1
aI2
aI1
aa(lp13
I2
aI2
aI2
aI3
aI4
aI4
aI4
aI4
aI5
aI4
aI5
aI4
aI5
aI5
aI5
aI4
aI5
aI5
aI4
aI3
aI2
aI1
aI2
aI1
aI1
aI3
aI4
aI5
aI5
aI5
aI6
aI5
aI5
aI6
aI7
aI7
aI6
aI6
aI5
aI5
aI6
aI7
aI0
aI0
aI1
aI1
aI2
aI1
aI1
aI0
aI1
aI1
aI1
aI1
aI1
aI0
aI1
aI0
aI0
aI6
aI5
aI5
aI6
aI5
aI6
aI7
aI0
aI1
aI1
aI1
aI2
aI1
aI2
aa(lp14
I2
aI2
aI2
aI3
aI3
aI5
aI4
aI4
aI5
aI5
aI5
aI5
aI5
aI5
aI6
aI5
aI5
aI5
aI5
aI5
aI5
aI5
aI5
aI5
aI5
aI6
aI7
aI0
aI1
aI1
aI1
aI1
aI1
aI1
aI1
aI1
aI0
aI2
aa(lp15
I2
aI2
aI2
aI2
aI3
aI3
aI3
aI4
aI3
aI4
aI5
aI4
aI4
aI5
aI3
aI4
aI4
aI4
aI4
aI4
aI5
aI4
aI5
aI6
aI5
aI6
aI5
aI6
aI6
aI6
aI6
aI6
aI6
aI6
aI7
aI6
aI7
aI6
aI7
aI0
aI1
aI2
aI2
aI2
aI3
aI2
aI2
aI2
aI3
aI2
aI1
aI2
aI1
aI1
aI0
aI0
aI2
aa(lp16
I2
aI2
aI2
aI2
aI2
aI2
aI2
aI3
aI3
aI3
aI3
aI3
aI4
aI4
aI4
aI4
aI5
aI4
aI3
aI3
aI2
aI2
aI3
aI2
aI3
aI5
aI6
aI6
aI6
aI6
aI6
aI7
aI6
aI6
aI6
aI5
aI5
aI6
aI6
aI6
aI7
aI7
aI1
aI1
aI1
aI1
aI2
aI2
aI1
aI0
aI1
aI0
aI0
aI7
aI7
aI7
aI6
aI6
aI7
aI6
aI5
aI0
aa(lp17
I2
aI2
aI2
aI2
aI2
aI2
aI3
aI3
aI5
aI5
aI6
aI5
aI6
aI6
aI5
aI3
aI2
aI2
aI3
aI2
aI2
aI3
aI3
aI3
aI4
aI4
aI5
aI4
aI5
aI5
aI5
aI6
aI5
aI5
aI6
aI6
aI5
aI6
aI6
aI6
aI6
aI6
aI6
aI7
aI0
aI1
aI3
aI2
aI2
aI2
aI1
aI2
aI2
aI1
aI2
aI1
aI2
aI1
aI1
aI0
aI0
aI0
aI7
aI6
aI6
aI7
aI6
aI6
aI6
aI5
aI6
aI6
aI6
aI6
aI5
aI5
aI7
aI0
aI0
aI1
aI1
aI1
aI0
aI1
aI2
aI1
aI2
aI2
aI2
aI2
aI2
aa(lp18
I2
aI2
aI2
aI2
aI2
aI2
aI3
aI2
aI2
aI3
aI2
aI3
aI3
aI2
aI3
aI4
aI4
aI4
aI5
aI4
aI5
aI4
aI5
aI5
aI5
aI5
aI5
aI5
aI5
aI6
aI5
aI5
aI7
aI0
aI0
aI1
aI1
aI1
aI1
aI2
aI1
aI0
aI1
aI1
aI1
aI0
aI1
aI7
aI0
aI6
aI6
aI7
aI6
aI6
aI7
aI6
aI6
aI5
aI6
aI6
aI6
aI6
aI6
aI5
aI7
aI7
aI1
aI1
aI2
aI2
aI2
aa(lp19
I2
aI3
aI3
aI5
aI5
aI4
aI5
aI5
aI4
aI5
aI5
aI4
aI5
aI4
aI4
aI5
aI5
aI4
aI5
aI4
aI5
aI5
aI6
aI6
aI7
aI1
aI0
aI1
aI0
aI0
aI1
aI1
aI0
aI1
aI0
aI0
aI0
aI1
aI4
aa(lp20
I2
aI3
aI4
aI5
aI6
aI5
aI6
aI5
aI6
aI6
aI7
aI6
aI5
aI4
aI3
aI2
aI2
aI3
aI3
aI3
aI4
aI4
aI4
aI4
aI5
aI4
aI5
aI5
aI5
aI5
aI6
aI6
aI5
aI6
aI6
aI6
aI6
aI7
aI6
aI7
aI0
aI1
aI2
aI3
aI2
aI2
aI2
aI2
aI1
aI2
aI1
aI0
aI1
aI0
aI0
aI0
aI0
aI0
aI5
aI6
aI6
aI5
aI6
aI6
aI6
aI7
aI0
aI1
aI1
aI0
aI1
aI0
aI1
aI1
aI2
aI1
aI3
aI2
aI2
aI1
aI2
aI2
aa(lp21
I2
aI2
aI2
aI2
aI3
aI3
aI4
aI4
aI4
aI4
aI5
aI5
aI4
aI3
aI4
aI3
aI4
aI4
aI4
aI5
aI4
aI5
aI5
aI5
aI5
aI6
aI6
aI7
aI7
aI0
aI0
aI1
aI1
aI3
aI3
aI1
aI0
aI1
aI0
aI0
aI7
aI6
aI6
aI7
aI0
aI1
aI1
aI1
aI1
aI0
aI0
aI6
aI6
aI6
aI5
aI6
aI6
aI7
aI1
aI1
aI2
aa(lp22
I2
aI2
aI2
aI2
aI2
aI2
aI2
aI2
aI3
aI4
aI3
aI3
aI5
aI5
aI4
aI4
aI4
aI4
aI4
aI3
aI4
aI5
aI4
aI3
aI4
aI3
aI4
aI5
aI5
aI6
aI6
aI7
aI7
aI0
aI7
aI0
aI1
aI0
aI0
aI6
aI5
aI6
aI6
aI5
aI6
aI6
aI6
aI6
aI6
aI6
aI7
aI7
aI7
aI7
aI0
aI0
aI0
aI0
aI1
aI1
aI1
aI1
aI2
aI1
aI1
aI2
aI2
aa(lp23
I2
aI2
aI3
aI2
aI3
aI4
aI4
aI3
aI2
aI1
aI0
aI1
aI0
aI1
aI3
aI3
aI4
aI4
aI4
aI5
aI5
aI5
aI6
aI5
aI5
aI6
aI5
aI5
aI3
aI3
aI3
aI5
aI3
aI4
aI5
aI4
aI5
aI6
aI6
aI6
aI6
aI7
aI0
aI2
aI1
aI2
aI1
aI0
aI0
aI7
aI7
aI6
aI5
aI5
aI5
aI4
aI3
aa(lp24
I2
aI2
aI2
aI3
aI4
aI5
aI5
aI6
aI6
aI6
aI5
aI6
aI5
aI5
aI0
aa(lp25
I2
aI3
aI4
aI5
aI4
aI5
aI5
aI0
aa(lp26
I2
aI2
aI2
aI2
aI2
aI2
aI3
aI2
aI3
aI4
aI4
aI4
aI5
aI6
aI5
aI5
aI5
aI5
aI3
aI4
aI4
aI4
aI4
aI4
aI5
aI5
aI5
aI5
aI5
aI6
aI6
aI6
aI7
aI6
aI7
aI7
aI0
aI0
aI1
aI0
aI1
aI1
aI1
aI1
aI1
aI7
aI0
aI0
aI7
aI0
aI1
aI0
aI1
aI2
aa(lp27
I3
aI4
aI4
aI4
aI4
aI5
aI4
aI4
aI4
aI3
aI2
aI1
aI0
aI1
aI1
aI0
aI1
aI0
aI1
aI2
aI3
aI5
aI4
aI5
aI4
aI4
aI4
aI4
aI4
aI5
aI4
aI4
aI4
aI4
aI4
aI5
aI4
aI5
aI5
aI7
aI0
aI0
aI0
aI1
aI0
aI0
aI0
aI0
aI2
aa(lp28
I2
aI3
aI4
aI4
aI4
aI5
aI4
aI4
aI4
aI5
aI4
aI5
aI4
aI5
aI4
aI4
aI4
aI5
aI4
aI5
aI4
aI5
aI7
aI7
aI0
aI1
aI0
aI1
aI0
aI0
aI0
aI6
aI6
aI6
aI7
aI7
aI0
aI0
aI0
aI1
aI0
aI1
aI1
aI1
aI1
aI2
aI2
aI2
aI2
aa(lp29
I2
aI2
aI2
aI2
aI2
aI3
aI3
aI4
aI5
aI7
aI5
aI6
aI6
aI6
aI5
aI7
aI6
aI5
aI6
aI5
aI5
aI3
aI2
aI2
aI2
aI2
aI2
aI3
aI2
aI3
aI3
aI3
aI4
aI3
aI4
aI4
aI4
aI5
aI5
aI5
aI5
aI6
aI6
aI6
aI6
aI6
aI6
aI6
aI6
aI6
aI7
aI6
aI7
aI7
aI7
aI0
aI1
aI2
aI1
aI2
aI3
aI4
aI3
aI2
aI3
aI2
aI2
aI2
aI1
aI2
aI1
aI0
aI0
aI7
aI7
aI7
aI6
aI6
aI6
aI6
aI6
aI6
aI6
aI6
aI5
aI6
aI6
aI7
aI0
aI0
aI1
aI0
aI0
aI0
aI1
aI1
aI2
aI3
aI1
aI1
aI2
aI1
aI2
aI2
aI2
aa(lp30
I2
aI2
aI2
aI3
aI4
aI4
aI4
aI4
aI3
aI4
aI5
aI4
aI5
aI5
aI4
aI4
aI5
aI4
aI5
aI4
aI5
aI4
aI4
aI5
aI6
aI6
aI7
aI0
aI1
aI0
aI0
aI1
aI0
aI0
aI1
aI4
aa(lp31
I2
aI3
aI4
aI4
aI3
aI4
aI4
aI3
aI4
aI4
aI3
aI4
aI4
aI4
aI3
aI4
aI4
aI4
aI4
aI4
aI4
aI5
aI6
aI7
aI0
aI7
aI0
aI0
aI0
aI0
aI0
aI7
aI0
aI0
aI7
aI0
aI0
aI7
aI0
aI0
aI0
aI0
aI0
aa(lp32
I2
aI2
aI2
aI2
aI2
aI2
aI3
aI2
aI1
aI2
aI3
aI3
aI4
aI5
aI4
aI5
aI4
aI5
aI4
aI5
aI4
aI5
aI4
aI5
aI4
aI5
aI5
aI4
aI5
aI5
aI5
aI7
aI7
aI1
aI0
aI1
aI1
aI0
aI1
aI0
aI1
aI0
aI1
aI0
aI1
aI0
aI0
aI6
aI7
aI6
aI6
aI6
aI6
aI7
aI0
aI0
aa(lp33
I2
aI3
aI4
aI4
aI5
aI4
aI5
aI4
aI5
aI3
aI4
aI5
aI6
aI6
aI5
aI5
aI4
aI5
aI5
aI4
aI4
aI4
aI4
aI5
aI6
aI7
aI7
aI0
aI0
aI0
aI1
aI0
aI1
aI0
aI0
aI6
aI6
aI6
aI7
aI0
aI0
aI0
aI1
aI1
aI1
aI1
aI2
aI3
aI4
aI5
aI5
aI3
aI2
aI2
aI1
aI1
aI1
aI0
aI1
aI1
aI0
aa(lp34
I2
aI2
aI3
aI2
aI2
aI2
aI3
aI2
aI2
aI2
aI2
aI2
aI3
aI2
aI2
aI3
aI2
aI3
aI3
aI4
aI4
aI4
aI5
aI5
aI5
aI5
aI5
aI5
aI5
aI5
aI5
aI0
aa(lp35
I2
aI3
aI4
aI5
aI6
aI5
aI4
aI5
aI3
aI2
aI2
aI1
aI2
aI1
aI0
aI0
aI1
aI2
aI3
aI4
aI4
aI4
aI5
aI4
aI4
aI4
aI4
aI5
aI4
aI4
aI4
aI4
aI4
aI4
aI4
aI4
aI5
aI6
aI7
aI0
aI0
aI0
aI0
aI0
aI0
aI0
aI0
aI1
aI0
aI0
aI6
aI6
aI5
aI6
aI6
aI7
aI7
aI0
aI0
aI0
aI0
aI1
aI1
aI1
aa(lp36
I2
aI2
aI2
aI3
aI3
aI4
aI4
aI4
aI4
aI5
aI4
aI5
aI4
aI4
aI3
aI3
aI3
aI4
aI4
aI4
aI5
aI5
aI5
aI6
aI5
aI6
aI6
aI6
aI7
aI7
aI0
aI0
aI0
aI1
aI0
aI0
aI7
aI7
aI7
aI1
aI0
aI0
aI1
aI0
aI0
aI1
aI0
aI1
aI2
aa(lp37
I2
aI2
aI2
aI2
aI2
aI3
aI3
aI4
aI4
aI4
aI4
aI4
aI4
aI5
aI4
aI5
aI4
aI5
aI3
aI3
aI3
aI5
aI6
aI6
aI7
aI5
aI5
aI5
aI5
aI5
aI6
aI6
aI7
aI0
aI0
aI1
aI1
aI1
aI1
aI2
aI1
aI1
aI0
aI1
aI0
aI1
aI0
aI0
aI0
aI0
aI0
aI6
aI6
aI6
aI6
aI6
aI5
aI6
aI6
aI6
aI7
aI1
aI2
aI1
aI2
aI2
aa(lp38
I2
aI2
aI2
aI3
aI3
aI3
aI4
aI4
aI4
aI4
aI4
aI4
aI4
aI4
aI5
aI4
aI4
aI5
aI5
aI4
aI5
aI5
aI6
aI5
aI5
aI6
aI6
aI6
aI6
aI7
aI7
aI7
aI0
aI0
aI0
aI0
aI0
aI0
aI0
aI0
aI0
aI0
aI0
aI0
aI1
aI1
aI1
aI0
aI1
aI3
aI2
aI1
aI2
aa(lp39
I3
aI4
aI4
aI5
aI5
aI4
aI5
aI4
aI4
aI5
aI6
aI5
aI5
aI5
aI5
aI4
aI5
aI5
aI5
aI5
aI5
aI6
aI7
aI1
aI0
aI1
aI1
aI0
aI1
aI1
aI0
aI2
aa(lp40
I2
aI2
aI3
aI4
aI4
aI4
aI4
aI4
aI4
aI4
aI4
aI4
aI4
aI4
aI5
aI4
aI4
aI3
aI3
aI2
aI3
aI4
aI5
aI5
aI6
aI6
aI6
aI6
aI6
aI6
aI7
aI7
aI0
aI1
aI2
aI1
aI0
aI0
aI0
aI0
aI0
aI0
aI0
aI5
aI5
aI6
aI7
aI0
aI0
aI1
aI1
aI0
aI1
aI0
aI1
aI0
aa(lp41
I2
aI3
aI3
aI4
aI3
aI4
aI4
aI4
aI4
aI4
aI4
aI5
aI5
aI5
aI4
aI3
aI4
aI3
aI4
aI3
aI4
aI5
aI7
aI7
aI7
aI7
aI0
aI7
aI5
aI6
aI6
aI6
aI5
aI6
aI6
aI7
aI7
aI7
aI0
aI1
aI0
aI1
aI2
aI1
aI2
aI2
aI2
aI2
aI3
aI2
aI2
aI1
aI1
aI0
aI0
aI0
aI6
aI7
aI7
aI0
aI1
aa(lp42
I2
aI2
aI3
aI3
aI4
aI5
aI3
aI3
aI4
aI4
aI4
aI4
aI4
aI4
aI4
aI4
aI4
aI4
aI3
aI4
aI3
aI4
aI5
aI7
aI6
aI7
aI7
aI0
aI0
aI7
aI0
aI0
aI6
aI6
aI7
aI6
aI7
aI7
aI0
aI0
aI0
aI1
aI0
aI0
aI0
aI1
aI1
aI2
aa(lp43
I3
aI4
aI4
aI4
aI5
aI4
aI3
aI2
aI2
aI2
aI2
aI3
aI4
aI5
aI6
aI6
aI5
aI6
aI6
aI5
aI5
aI0
aa(lp44
I2
aI2
aI2
aI2
aI2
aI2
aI2
aI3
aI2
aI3
aI4
aI4
aI4
aI4
aI4
aI4
aI5
aI4
aI4
aI5
aI5
aI4
aI4
aI4
aI5
aI4
aI4
aI5
aI5
aI6
aI7
aI0
aI0
aI7
aI0
aI1
aI0
aI1
aI0
aI1
aI0
aI0
aI1
aI1
aI0
aI0
aI6
aI7
aI6
aI6
aI6
aI6
aI6
aI6
aI6
aI6
aI7
aI7
aI1
aI2
aI2
aI2
aI2
aa(lp45
I2
aI2
aI2
aI2
aI3
aI4
aI5
aI6
aI6
aI6
aI6
aI5
aI6
aI5
aI6
aI6
aI6
aI5
aI6
aI5
aI3
aI2
aI2
aI3
aI2
aI3
aI2
aI3
aI3
aI4
aI3
aI4
aI4
aI5
aI5
aI5
aI6
aI5
aI6
aI6
aI6
aI5
aI6
aI6
aI6
aI6
aI6
aI7
aI7
aI1
aI1
aI1
aI2
aI3
aI3
aI2
aI2
aI2
aI1
aI2
aI1
aI1
aI0
aI7
aI7
aI6
aI6
aI7
aI6
aI5
aI7
aI6
aI7
aI7
aI0
aI1
aI1
aI1
aI1
aI1
aI2
aI1
aI2
aI2
aI2
aI1
aI2
aa(lp46
I2
aI3
aI3
aI2
aI2
aI2
aI2
aI1
aI2
aI2
aI2
aI2
aI2
aI2
aI2
aI3
aI4
aI5
aI6
aI5
aI4
aI5
aI5
aI5
aI4
aI5
aI4
aI5
aI4
aI4
aI5
aI5
aI5
aI6
aI6
aI7
aI0
aI1
aI0
aI1
aI0
aI0
aI1
aI1
aI1
aI0
aI1
aI0
aI2
aa(lp47
I3
aI4
aI4
aI5
aI6
aI6
aI6
aI5
aI6
aI6
aI6
aI6
aI6
aI6
aI6
aI5
aI0
aI0
aI0
aI1
aI2
aI2
aI2
aI1
aI2
aI2
aI2
aI2
aI2
aI2
aa(lp48
I2
aI2
aI2
aI2
aI3
aI1
aI2
aI2
aI2
aI3
aI4
aI5
aI6
aI6
aI5
aI6
aI6
aI5
aI0
aI5
aI6
aI6
aI6
aa(lp49
I2
aI3
aI4
aI4
aI5
aI5
aI4
aI5
aI4
aI4
aI5
aI4
aI5
aI4
aI4
aI4
aI5
aI4
aI4
aI4
aI3
aI5
aI6
aI7
aI7
aI0
aI0
aI0
aI0
aI1
aI0
aI0
aI0
aI1
aI0
aI0
aI1
aI0
aI0
aI6
aI6
aI6
aI6
aI6
aI6
aI6
aI6
aI6
aI7
aI1
aI1
aI2
aI2
aI2
aI1
aI2
aI2
aI2
aI2
aI2
aI2
aI2
aa(lp50
I2
aI2
aI2
aI2
aI2
aI3
aI4
aI3
aI4
aI4
aI5
aI4
aI4
aI4
aI5
aI5
aI4
aI5
aI5
aI5
aI5
aI5
aI4
aI5
aI6
aI6
aI6
aI7
aI0
aI1
aI1
aI1
aI1
aI1
aI1
aI0
aI1
aI1
aI0
aI1
aI0
aI0
aI0
aI6
aI6
aI6
aI6
aI5
aI6
aI5
aI5
aI5
aI6
aI5
aI5
aI5
aI0
aa(lp51
I2
aI2
aI2
aI2
aI3
aI3
aI4
aI4
aI5
aI4
aI5
aI4
aI4
aI5
aI4
aI5
aI4
aI5
aI4
aI5
aI4
aI4
aI5
aI5
aI5
aI6
aI7
aI1
aI0
aI0
aI1
aI0
aI0
aI1
aI1
aI0
aI1
aI0
aI1
aI0
aI0
aI1
aI0
aI0
aI2
aa(lp52
I2
aI2
aI3
aI4
aI4
aI5
aI7
aI5
aI5
aI5
aI5
aI4
aI5
aI4
aI5
aI4
aI4
aI3
aI2
aI2
aI1
aI1
aI1
aI2
aI1
aI1
aI2
aI3
aI3
aI4
aI4
aI5
aI5
aI5
aI6
aI5
aI6
aI6
aI5
aI4
aI3
aI5
aI6
aI6
aI7
aI0
aI0
aI0
aI6
aI7
aI7
aI7
aI0
aI0
aI0
aI0
aI1
aI0
aI1
aI1
aI0
aI1
aI1
aI1
aI1
aa(lp53
I2
aI2
aI2
aI2
aI3
aI3
aI3
aI4
aI3
aI4
aI4
aI4
aI4
aI4
aI4
aI4
aI5
aI4
aI4
aI4
aI4
aI3
aI4
aI4
aI5
aI6
aI7
aI0
aI6
aI5
aI5
aI6
aI6
aI6
aI7
aI7
aI0
aI0
aI0
aI0
aI0
aI1
aI0
aI1
aI2
aI2
aI2
aI2
aI1
aI0
aI0
aI0
aI0
aI7
aI7
aI6
aI5
aI5
aI7
aI7
aI1
aI0
aI1
aa(lp54
I2
aI2
aI3
aI2
aI2
aI3
aI4
aI3
aI5
aI6
aI7
aI6
aI5
aI4
aI5
aI4
aI4
aI5
aI4
aI3
aI3
aI3
aI3
aI3
aI3
aI4
aI5
aI5
aI6
aI5
aI6
aI6
aI6
aI6
aI6
aI6
aI7
aI7
aI1
aI2
aI2
aI2
aI2
aI2
aI1
aI1
aI4
aa(lp55
I2
aI2
aI3
aI2
aI2
aI3
aI2
aI3
aI3
aI3
aI4
aI4
aI4
aI5
aI5
aI5
aI0
aa(lp56
I2
aI2
aI2
aI2
aI2
aI2
aI2
aI2
aI3
aI4
aI3
aI5
aI4
aI3
aI3
aI5
aI6
aI5
aI6
aI5
aI6
aI5
aI0
aI5
aI0
aa(lp57
I2
aI2
aI2
aI2
aI2
aI2
aI2
aI2
aI3
aI2
aI3
aI3
aI3
aI4
aI4
aI4
aI4
aI5
aI5
aI4
aI5
aI5
aI5
aI5
aI5
aI6
aI5
aI3
aI2
aI2
aI2
aI3
aI5
aI5
aI6
aI6
aI6
aI6
aI7
aI7
aI6
aI6
aI6
aI5
aI6
aI6
aI7
aI0
aI0
aI0
aI1
aI2
aI2
aI1
aI3
aI2
aI2
aI1
aI1
aI2
aI1
aI1
aI1
aI1
aI0
aI1
aI0
aI0
aI7
aI6
aI7
aI6
aI6
aI5
aI6
aI6
aI6
aI6
aI6
aI5
aI6
aI5
aI4
aI5
aI7
aI7
aI0
aI1
aI1
aI1
aI2
aI1
aI2
aI2
aa(lp58
I2
aI2
aI2
aI2
aI3
aI4
aI3
aI4
aI4
aI4
aI5
aI4
aI4
aI5
aI5
aI4
aI5
aI4
aI5
aI4
aI4
aI5
aI5
aI4
aI5
aI6
aI7
aI0
aI0
aI0
aI1
aI0
aI1
aI0
aI1
aI1
aI0
aI0
aI2
aa(lp59
I2
aI2
aI2
aI2
aI3
aI2
aI3
aI3
aI4
aI4
aI4
aI4
aI4
aI4
aI4
aI4
aI4
aI3
aI3
aI4
aI4
aI4
aI5
aI5
aI5
aI6
aI6
aI5
aI6
aI6
aI6
aI7
aI6
aI6
aI7
aI7
aI0
aI1
aI1
aI2
aI2
aI1
aI3
aI2
aI2
aI5
aI6
aI7
aa(lp60
I2
aI3
aI4
aI4
aI4
aI5
aI4
aI4
aI4
aI4
aI4
aI3
aI3
aI5
aI6
aI5
aI0
aa(lp61
I2
aI3
aI4
aI4
aI5
aI4
aI4
aI5
aI4
aI4
aI4
aI5
aI4
aI5
aI4
aI5
aI5
aI4
aI5
aI4
aI5
aI5
aI6
aI7
aI1
aI0
aI0
aI1
aI0
aI1
aI0
aI1
aI1
aI0
aI0
aI1
aI0
aI1
aI0
aI1
aI0
aI0
aI0
aa(lp62
I2
aI2
aI2
aI2
aI2
aI2
aI2
aI3
aI3
aI5
aI6
aI5
aI7
aI5
aI6
aI6
aI6
aI6
aI5
aI0
aa(lp63
I2
aI2
aI2
aI3
aI3
aI3
aI4
aI4
aI3
aI3
aI3
aI3
aI4
aI4
aI4
aI4
aI4
aI5
aI4
aI5
aI6
aI5
aI5
aI6
aI5
aI6
aI5
aI6
aI6
aI6
aI7
aI7
aI1
aI2
aI1
aI2
aI2
aI1
aI2
aI1
aI2
aI1
aI0
aI0
aI1
aI7
aI6
aI6
aI6
aI6
aI6
aI6
aI7
aI7
aI1
aI2
aI1
aI1
aI0
aI6
aI6
aI5
aI6
aI5
aI4
aI5
aI7
aI7
aI0
aI1
aI1
aI1
aI1
aI2
aa(lp64
I2
aI2
aI2
aI2
aI2
aI2
aI3
aI2
aI3
aI2
aI3
aI4
aI3
aI5
aI4
aI5
aI5
aI5
aI6
aI5
aI3
aI4
aI4
aI4
aI4
aI5
aI5
aI5
aI5
aI5
aI6
aI6
aI6
aI6
aI7
aI1
aI1
aI2
aI1
aI1
aI1
aI1
aI7
aI6
aI6
aI6
aI6
aI7
aI0
aI1
aI2
aI2
aI1
aI2
aI1
aI2
aI1
aI1
aI1
aI7
aI6
aI6
aI7
aI5
aI6
aI0
aa(lp65
I2
aI2
aI2
aI2
aI3
aI4
aI5
aI6
aI6
aI5
aI6
aI6
aI5
aI6
aI6
aI6
aI6
aI6
aI5
aI3
aI3
aI4
aI4
aI4
aI5
aI5
aI5
aI6
aI5
aI6
aI6
aI6
aI7
aI7
aI0
aI0
aI1
aI2
aI3
aI3
aI2
aI1
aI1
aI1
aI7
aI7
aI6
aI6
aI7
aI0
aI1
aI1
aI1
aI2
aI2
aI2
aI2
aI3
aI2
aI1
aI2
aI1
aI4
aa(lp66
I2
aI2
aI2
aI2
aI3
aI2
aI2
aI3
aI3
aI3
aI4
aI4
aI4
aI4
aI4
aI5
aI4
aI5
aI4
aI4
aI5
aI4
aI5
aI4
aI5
aI4
aa(lp67
I2
aI2
aI2
aI3
aI2
aI2
aI3
aI4
aI4
aI4
aI5
aI4
aI5
aI4
aI4
aI4
aI4
aI5
aI4
aI4
aI4
aI4
aI4
aI4
aI4
aI5
aI6
aI7
aI7
aI0
aI0
aI1
aI0
aI0
aI0
aI1
aI0
aI0
aI0
aI6
aI6
aI6
aI6
aI7
aI7
aI0
aI0
aI0
aI1
aI0
aI1
aI2
aa(lp68
I2
aI2
aI2
aI3
aI4
aI3
aI4
aI5
aI4
aI4
aI4
aI4
aI5
aI4
aI4
aI4
aI4
aI4
aI5
aI3
aI4
aI4
aI5
aI5
aI6
aI7
aI7
aI0
aI0
aI0
aI0
aI0
aI0
aI0
aI0
aI0
aI6
aI6
aI6
aI6
aI6
aI6
aI7
aI5
aI6
aI7
aI6
aI6
aI7
aI7
aI0
aI0
aI0
aI0
aI1
aI2
aI2
aI2
aI3
aI4
aI4
aI3
aI2
aI2
aI2
aI3
aI2
aI2
aI2
aI2
aI1
aI0
aI0
aI0
aI0
aI0
aa(lp69
I2
aI3
aI3
aI4
aI4
aI4
aI5
aI4
aI3
aI2
aI1
aI0
aI0
aI0
aI1
aI1
aI1
aI3
aI4
aI4
aI4
aI4
aI5
aI4
aI3
aI4
aI5
aI5
aI4
aI4
aI4
aI5
aI4
aI3
aI4
aI5
aI5
aI6
aI6
aI7
aI0
aI0
aI0
aI1
aI0
aI0
aI0
aI0
aI6
aI6
aI6
aI6
aI6
aI7
aI0
aI0
aI1
aI0
aI0
aI0
aI0
aI0
aI1
aI0
aa(lp70
I2
aI2
aI2
aI3
aI2
aI2
aI2
aI2
aI3
aI2
aI2
aI2
aI3
aI2
aI3
aI5
aI6
aI5
aI4
aI5
aI5
aI0
aa(lp71
I3
aI3
aI5
aI5
aI5
aI5
aI5
aI5
aI4
aI5
aI5
aI5
aI4
aI3
aI4
aI4
aI4
aI5
aI5
aI5
aI6
aI6
aI5
aI6
aI6
aI6
aI7
aI0
aI7
aI1
aI0
aI1
aI1
aI1
aI1
aI0
aI6
aI7
aI7
aI7
aI7
aI0
aI1
aI1
aI1
aI1
aI2
aI2
aI2
aI2
aI2
aI3
aI4
aI5
aI6
aI6
aI5
aI6
aI5
aI3
aI2
aI3
aI2
aI1
aI1
aI1
aI1
aI1
aI1
aI1
aI1
aa(lp72
I2
aI2
aI2
aI3
aI2
aI3
aI4
aI4
aI4
aI4
aI5
aI4
aI4
aI4
aI3
aI4
aI3
aI3
aI3
aI4
aI4
aI4
aI5
aI5
aI6
aI5
aI6
aI6
aI6
aI6
aI6
aI6
aI6
aI7
aI7
aI1
aI2
aI2
aI2
aI1
aI2
aI2
aI2
aI1
aI0
aI7
aI0
aI6
aI7
aI6
aI6
aI7
aI0
aI0
aI0
aI2
aI2
aI1
aI1
aI0
aI0
aI6
aI6
aI6
aI5
aI6
aI5
aI3
aa(lp73
I2
aI2
aI2
aI2
aI2
aI3
aI3
aI4
aI4
aI3
aI5
aI4
aI5
aI4
aI5
aI5
aI4
aI5
aI4
aI5
aI4
aI5
aI4
aI4
aI5
aI5
aI6
aI7
aI0
aI0
aI0
aI0
aI1
aI0
aI0
aI7
aI6
aI7
aI7
aI0
aI7
aI0
aI1
aI0
aI1
aI0
aI1
aI2
aI1
aI2
aa(lp74
I3
aI3
aI4
aI5
aI6
aI6
aI5
aI6
aI6
aI5
aI0
aa(lp75
I2
aI2
aI2
aI2
aI2
aI2
aI2
aI3
aI3
aI4
aI5
aI6
aI7
aI6
aI6
aI6
aI6
aI5
aI4
aI3
aI2
aI2
aI2
aI2
aI2
aI3
aI2
aI3
aI3
aI4
aI3
aI4
aI4
aI4
aI4
aI4
aI5
aI5
aI5
aI6
aI5
aI5
aI6
aI6
aI7
aI7
aI0
aI0
aI0
aI1
aI3
aI4
aI3
aI2
aI1
aI1
aI1
aI0
aI0
aI0
aI7
aI0
aI7
aI6
aI6
aI6
aI5
aI5
aI0
aa(lp76
I2
aI3
aI3
aI5
aI3
aI3
aI3
aI4
aI4
aI4
aI5
aI4
aI4
aI5
aI5
aI4
aI5
aI5
aI4
aI5
aI5
aI6
aI5
aI6
aI6
aI7
aI7
aI0
aI0
aI0
aI0
aI0
aI0
aI0
aI1
aI0
aI0
aI1
aI0
aI1
aI0
aI1
aI1
aI1
aI1
aa(lp77
I2
aI2
aI2
aI2
aI2
aI2
aI3
aI3
aI4
aI4
aI4
aI4
aI5
aI4
aI4
aI5
aI3
aI3
aI4
aI5
aI6
aI5
aI4
aI4
aI4
aI4
aI5
aI5
aI7
aI0
aI0
aI0
aI0
aI0
aI0
aI7
aI0
aI0
aI1
aI2
aI1
aI0
aI0
aI1
aI0
aI0
aI7
aI6
aI6
aI5
aI4
aI4
aI3
aI4
aI5
aI5
aI7
aI0
aI0
aI0
aI0
aI0
aI0
aI0
aI0
aa(lp78
I2
aI2
aI3
aI2
aI2
aI3
aI5
aI4
aI3
aI3
aI5
aI5
aI5
aI6
aI5
aI3
aI4
aI3
aI5
aI5
aI5
aI5
aI6
aI5
aI6
aI5
aI6
aI5
aI6
aI5
aI6
aI6
aI6
aI7
aI0
aI0
aI0
aI1
aI1
aI1
aI1
aI1
aI0
aI6
aI7
aI7
aI0
aI7
aI0
aI1
aI1
aI1
aI1
aI2
aI1
aI2
aI2
aI2
aI2
aa(lp79
I2
aI2
aI2
aI2
aI2
aI2
aI2
aI3
aI3
aI2
aI2
aI3
aI4
aI4
aI3
aI2
aI2
aI2
aI3
aI3
aI4
aI5
aI5
aI6
aI5
aI7
aI5
aI0
aa(lp80
I3
aI3
aI4
aI5
aI4
aI5
aI4
aI5
aI4
aI3
aI2
aI2
aI2
aI1
aI0
aI0
aI0
aI0
aI0
aI0
aI0
aI0
aI1
aI2
aI3
aI4
aI4
aI4
aI4
aI4
aI3
aI5
aI4
aI4
aI5
aI4
aI4
aI4
aI5
aI4
aI4
aI4
aI4
aI5
aI5
aI6
aI7
aI0
aI1
aI0
aI0
aI0
aI1
aI0
aI6
aI6
aI6
aI6
aI6
aI6
aI5
aI6
aI7
aI7
aI1
aI0
aI1
aI1
aI1
aI0
aI0
aI1
aI1
aI0
aI0
aa(lp81
I2
aI3
aI2
aI3
aI2
aI2
aI2
aI2
aI2
aI3
aI4
aI5
aI6
aI6
aI6
aI6
aI6
aI5
aI0
aI6
aI0
aI6
aI5
aI0
aI7
aI0
aI0
aa(lp82
I2
aI2
aI2
aI2
aI3
aI3
aI5
aI5
aI7
aI6
aI6
aI5
aI3
aI2
aI3
aI4
aI5
aI4
aI5
aI4
aI5
aI5
aI4
aI4
aI5
aI5
aI4
aI5
aI4
aI5
aI6
aI7
aI0
aI0
aI1
aI0
aI1
aI1
aI0
aI0
aI1
aI0
aI1
aI4
aa(lp83
I2
aI2
aI2
aI2
aI3
aI4
aI4
aI4
aI4
aI5
aI5
aI4
aI5
aI5
aI5
aI5
aI4
aI4
aI4
aI4
aI5
aI4
aI5
aI5
aI5
aI6
aI6
aI7
aI7
aI0
aI1
aI0
aI1
aI1
aI1
aI0
aI0
aI0
aI0
aI0
aI0
aI0
aI7
aI0
aI1
aI1
aI2
aI1
aI2
aa(lp84
I2
aI2
aI2
aI3
aI4
aI5
aI6
aI5
aI6
aI5
aI5
aI5
aI5
aI3
aI3
aI2
aI3
aI3
aI4
aI3
aI4
aI4
aI4
aI5
aI5
aI5
aI6
aI5
aI6
aI6
aI6
aI6
aI7
aI6
aI7
aI7
aI0
aI0
aI0
aI0
aI0
aI0
aI1
aI0
aI1
aI1
aI0
aI1
aI1
aI1
aI1
aI1
aI2
aI1
aa(lp85
I2
aI2
aI2
aI2
aI3
aI4
aI5
aI6
aI5
aI6
aI6
aI5
aI6
aI5
aI6
aI6
aI5
aI3
aI2
aI2
aI2
aI2
aI3
aI2
aI2
aI2
aI3
aI2
aI3
aI4
aI3
aI4
aI4
aI5
aI4
aI5
aI5
aI5
aI6
aI5
aI6
aI6
aI6
aI6
aI6
aI6
aI6
aI7
aI1
aI2
aI2
aI1
aI2
aI2
aI1
aI1
aI1
aI1
aI7
aI6
aI6
aI7
aI6
aI6
aI5
aI6
aI6
aI6
aI6
aI6
aI7
aI0
aI0
aI0
aI1
aI0
aI0
aI1
aI0
aI1
aI2
aI1
aI2
aI2
aI1
aI2
aa(lp86
I2
aI3
aI3
aI5
aI4
aI5
aI4
aI5
aI3
aI2
aI2
aI2
aI3
aI3
aI3
aI4
aI4
aI4
aI4
aI4
aI5
aI5
aI5
aI5
aI6
aI5
aI6
aI6
aI7
aI6
aI7
aI5
aI6
aI6
aI7
aI0
aI0
aI1
aI0
aI0
aI0
aI0
aI0
aI0
aI0
aI1
aI1
aI0
aI1
aI0
aI1
aI1
aI1
aa(lp87
I2
aI2
aI2
aI3
aI3
aI4
aI4
aI4
aI4
aI4
aI4
aI4
aI5
aI5
aI4
aI5
aI4
aI5
aI5
aI5
aI5
aI4
aI5
aI6
aI5
aI6
aI6
aI6
aI6
aI7
aI0
aI7
aI1
aI0
aI0
aI0
aI1
aI1
aI1
aI0
aI1
aI1
aI1
aI1
aI0
aI0
aI1
aI0
aI1
aa(lp88
I2
aI2
aI2
aI2
aI3
aI3
aI5
aI3
aI5
aI5
aI4
aI5
aI4
aI3
aI2
aI3
aI4
aI4
aI5
aI5
aI4
aI5
aI6
aI5
aI6
aI5
aI5
aI6
aI5
aI6
aI6
aI6
aI7
aI1
aI1
aI2
aI2
aI2
aI1
aI1
aI1
aI2
aI1
aI0
aI0
aI2
aa(lp89
I2
aI3
aI4
aI4
aI4
aI4
aI4
aI5
aI3
aI4
aI4
aI5
aI5
aI4
aI5
aI4
aI5
aI4
aI5
aI5
aI4
aI5
aI6
aI7
aI0
aI0
aI1
aI1
aI0
aI1
aI0
aI0
aI2
aa(lp90
I2
aI2
aI2
aI2
aI2
aI2
aI2
aI3
aI3
aI4
aI4
aI5
aI4
aI3
aI4
aI4
aI5
aI5
aI4
aI4
aI4
aI4
aI5
aI4
aI4
aI4
aI5
aI5
aI6
aI7
aI0
aI0
aI1
aI0
aI0
aI0
aI0
aI1
aI0
aI0
aI6
aI5
aI7
aI6
aI7
aI1
aI1
aI2
aI2
aI2
aI1
aI0
aI0
aI0
aI6
aI6
aI6
aI5
aI6
aI6
aI7
aI0
aI1
aa(lp91
I2
aI2
aI2
aI3
aI4
aI4
aI3
aI4
aI5
aI4
aI5
aI4
aI4
aI5
aI4
aI4
aI5
aI4
aI5
aI4
aI4
aI5
aI4
aI5
aI6
aI7
aI1
aI0
aI0
aI1
aI0
aI0
aI1
aI0
aI6
aI5
aI7
aI6
aI7
aI0
aI0
aI0
aI0
aI1
aI0
aI1
aI1
aI1
aI1
aa(lp92
I2
aI2
aI2
aI2
aI3
aI3
aI4
aI3
aI2
aI3
aI4
aI4
aI4
aI5
aI4
aI5
aI4
aI5
aI4
aI5
aI5
aI4
aI5
aI4
aI5
aI5
aI6
aI7
aI0
aI1
aI0
aI1
aI1
aI0
aI1
aI0
aI1
aI0
aI0
aI1
aI2
aI5
aa(lp93
I2
aI2
aI2
aI3
aI3
aI5
aI3
aI2
aI2
aI2
aI3
aI3
aI3
aI5
aI4
aI4
aI5
aI5
aI3
aI2
aI2
aI2
aI3
aI2
aI3
aI3
aI5
aI4
aI5
aI6
aI6
aI5
aI6
aI5
aI6
aI7
aI0
aI1
aI1
aI0
aI2
aI2
aI2
aI5
aI6
aa(lp94
I2
aI3
aI4
aI4
aI4
aI4
aI5
aI4
aI4
aI4
aI3
aI3
aI4
aI3
aI4
aI4
aI5
aI4
aI5
aI5
aI5
aI6
aI5
aI6
aI7
aI7
aI0
aI0
aI1
aI0
aI0
aI1
aI0
aI0
aI6
aI7
aI6
aI7
aI6
aI7
aI7
aI7
aI0
aI0
aI1
aI2
aI1
aI2
aI2
aI2
aI2
aI2
aI2
aI1
aI4
aa(lp95
I2
aI2
aI2
aI3
aI4
aI4
aI4
aI5
aI4
aI5
aI4
aI5
aI4
aI4
aI4
aI4
aI4
aI4
aI4
aI4
aI4
aI4
aI4
aI5
aI6
aI7
aI7
aI0
aI0
aI0
aI0
aI0
aI0
aI0
aI1
aI0
aI0
aI0
aI0
aI1
aI0
aI0
aI6
aI7
aI0
aI1
aI2
aa(lp96
I2
aI3
aI3
aI4
aI4
aI4
aI3
aI3
aI4
aI4
aI4
aI4
aI4
aI4
aI4
aI4
aI4
aI4
aI3
aI4
aI5
aI5
aI6
aI6
aI7
aI0
aI0
aI0
aI7
aI7
aI0
aI0
aI6
aI5
aI7
aI6
aI6
aI6
aI6
aI7
aI7
aI7
aI7
aI0
aI0
aI7
aI0
aI1
aI1
aI1
aI2
aI3
aI4
aI3
aI4
aI3
aI3
aI2
aI2
aI2
aI1
aI4
aa(lp97
I2
aI2
aI2
aI2
aI3
aI4
aI4
aI5
aI5
aI5
aI5
aI5
aI3
aI3
aI3
aI4
aI4
aI3
aI4
aI5
aI4
aI4
aI5
aI5
aI6
aI5
aI6
aI6
aI6
aI6
aI7
aI7
aI7
aI0
aI0
aI0
aI0
aI1
aI0
aI1
aI1
aI1
aI0
aI6
aI7
aI6
aI6
aI6
aI7
aI7
aI1
aI1
aI2
aI2
aI1
aI1
aI2
aI2
aI2
aI2
aa(lp98
I2
aI2
aI3
aI3
aI3
aI3
aI4
aI4
aI4
aI4
aI4
aI4
aI5
aI4
aI3
aI2
aI2
aI3
aI3
aI4
aI5
aI6
aI6
aI5
aI6
aI5
aI6
aI5
aI6
aI5
aI6
aI6
aI7
aI0
aI7
aI0
aI1
aI1
aI2
aI1
aI1
aI0
aI1
aI0
aI0
aI0
aI0
aI0
aI0
aI6
aI5
aI5
aI6
aI6
aI7
aI0
aI0
aI0
aI1
aI1
aI2
aa(lp99
I2
aI3
aI4
aI5
aI4
aI4
aI5
aI4
aI5
aI4
aI3
aI3
aI2
aI3
aI4
aI3
aI4
aI4
aI4
aI5
aI5
aI5
aI5
aI6
aI6
aI7
aI7
aI0
aI0
aI7
aI0
aI0
aI0
aI0
aI0
aI0
aI0
aI1
aI0
aI1
aI0
aI1
aI0
aI0
aI1
aa(lp100
I2
aI2
aI2
aI3
aI3
aI3
aI3
aI4
aI4
aI5
aI4
aI5
aI3
aI3
aI3
aI4
aI4
aI4
aI4
aI4
aI5
aI5
aI5
aI5
aI6
aI6
aI6
aI6
aI6
aI7
aI7
aI0
aI0
aI1
aI3
aI3
aI2
aI2
aI1
aI1
aI1
aI0
aI7
aI0
aI6
aI6
aI6
aI6
aI6
aI6
aI7
aI0
aI1
aI1
aI2
aI2
aI1
aI1
aI1
aI7
aI7
aI5
aI5
aI7
aI7
aI1
aI0
aa(lp101
I2
aI2
aI2
aI3
aI3
aI4
aI4
aI3
aI5
aI4
aI4
aI5
aI4
aI5
aI4
aI5
aI5
aI3
aI3
aI2
aI2
aI2
aI3
aI3
aI5
aI5
aI6
aI5
aI7
aI6
aI5
aI6
aI6
aI6
aI6
aI6
aI7
aI6
aI5
aI6
aI6
aI7
aI7
aI0
aI0
aI1
aI2
aI1
aI2
aI2
aI1
aI1
aI1
aI1
aI1
aI1
aI0
aI1
aI0
aI0
aI5
aI0
aa(lp102
I2
aI2
aI2
aI2
aI3
aI3
aI5
aI5
aI6
aI6
aI6
aI6
aI5
aI6
aI6
aI6
aI6
aI6
aI6
aI5
aI3
aI3
aI2
aI2
aI3
aI4
aI4
aI4
aI5
aI5
aI5
aI5
aI5
aI5
aI6
aI6
aI5
aI7
aI6
aI7
aI0
aI0
aI0
aI1
aI2
aI3
aI3
aI1
aI1
aI1
aI0
aI2
aa(lp103
I2
aI2
aI2
aI2
aI3
aI3
aI4
aI5
aI5
aI5
aI5
aI6
aI5
aI3
aI3
aI3
aI3
aI3
aI4
aI3
aI4
aI5
aI4
aI5
aI5
aI6
aI5
aI6
aI6
aI6
aI6
aI6
aI6
aI6
aI6
aI6
aI7
aI1
aI2
aI2
aI1
aI2
aI2
aI1
aI3
aI2
aI2
aI1
aI1
aI0
aI7
aI0
aI7
aI6
aI7
aI6
aI6
aI7
aI6
aI7
aI0
aI1
aI2
aI1
aI2
aI2
aI1
aI1
aI0
aI2
aI4
aa(lp104
I2
aI2
aI2
aI2
aI2
aI3
aI2
aI2
aI3
aI3
aI3
aI4
aI4
aI4
aI4
aI4
aI4
aI5
aI5
aI4
aI5
aI4
aI5
aI4
aI5
aI4
aI5
aI5
aI6
aI6
aI7
aI7
aI0
aI1
aI1
aI0
aI1
aI1
aI1
aI0
aI0
aI1
aI0
aI0
aI0
aI0
aI6
aI7
aI6
aI5
aI0
aa(lp105
I2
aI2
aI2
aI2
aI3
aI4
aI4
aI4
aI4
aI5
aI5
aI5
aI5
aI4
aI4
aI4
aI4
aI4
aI4
aI4
aI5
aI5
aI5
aI5
aI6
aI5
aI6
aI6
aI6
aI6
aI6
aI6
aI6
aI7
aI7
aI0
aI0
aI0
aI1
aI2
aI2
aI3
aI3
aI2
aI2
aI1
aI1
aI1
aI0
aI6
aI6
aI6
aI6
aI7
aI7
aI0
aI0
aI1
aI2
aI2
aI2
aI1
aI0
aI2
aI2
aI1
aI2
aI5
aI5
aI6
aa(lp106
I2
aI2
aI2
aI2
aI2
aI2
aI2
aI2
aI2
aI2
aI2
aI2
aI2
aI2
aI2
aI3
aI5
aI6
aI6
aI6
aI6
aI6
aI6
aI5
aI6
aI5
aI0
aI5
aI0
aI6
aa(lp107
I3
aI3
aI4
aI4
aI4
aI4
aI4
aI4
aI5
aI4
aI3
aI1
aI1
aI1
aI0
aI1
aI1
aI0
aI0
aI0
aI0
aI1
aI3
aI3
aI4
aI4
aI4
aI4
aI4
aI4
aI4
aI4
aI4
aI4
aI4
aI4
aI4
aI4
aI3
aI4
aI4
aI5
aI5
aI7
aI0
aI0
aI0
aI7
aI0
aI0
aI0
aI0
aI0
aI0
aI0
aI5
aI5
aI5
aI5
aI5
aI5
aI6
aI7
aI7
aI0
aI0
aI0
aI0
aI0
aI0
aI1
aI0
aI0
aI0
aI7
aI1
aa(lp108
I2
aI2
aI3
aI5
aI3
aI3
aI4
aI4
aI4
aI5
aI4
aI4
aI5
aI4
aI5
aI4
aI5
aI4
aI5
aI4
aI5
aI4
aI5
aI6
aI7
aI0
aI1
aI0
aI1
aI0
aI0
aI1
aI1
aI0
aI1
aI0
aI0
aI6
aI6
aI6
aI7
aI7
aI0
aI0
aI1
aI1
aI1
aI2
aa(lp109
I2
aI2
aI3
aI4
aI3
aI4
aI3
aI2
aI1
aI1
aI3
aI4
aI5
aI5
aI5
aI6
aI5
aI6
aI5
aI3
aI3
aI2
aI3
aI3
aI3
aI3
aI4
aI5
aI5
aI5
aI5
aI6
aI6
aI6
aI6
aI6
aI7
aI7
aI7
aI7
aI7
aI0
aI0
aI1
aI0
aI1
aI7
aI6
aI7
aI7
aI0
aI0
aI1
aI0
aI1
aI1
aI2
aI1
aI2
aa(lp110
I2
aI2
aI3
aI4
aI4
aI4
aI5
aI4
aI3
aI4
aI4
aI4
aI4
aI4
aI4
aI3
aI4
aI3
aI3
aI1
aI0
aI0
aI1
aI0
aI0
aI0
aI1
aI0
aI1
aI1
aI1
aI2
aI2
aI3
aI4
aI3
aI4
aI4
aI4
aI4
aI5
aI4
aI4
aI5
aI4
aI5
aI4
aI4
aI5
aI6
aI6
aI6
aI6
aI6
aI6
aI7
aI7
aI7
aI7
aI7
aI7
aI0
aI0
aI7
aI0
aI0
aI0
aI0
aI0
aI0
aI0
aI0
aI0
aI0
aI0
aa(lp111
I2
aI3
aI3
aI5
aI4
aI4
aI4
aI5
aI4
aI5
aI4
aI4
aI5
aI4
aI5
aI3
aI2
aI2
aI2
aI2
aI3
aI5
aI6
aI5
aI6
aI5
aI6
aI6
aI6
aI7
aI5
aI6
aI5
aI5
aI6
aI6
aI6
aI7
aI7
aI0
aI0
aI1
aI0
aI1
aI1
aI2
aI1
aI3
aI2
aI2
aI1
aI1
aI0
aI7
aI0
aI0
aI0
aI0
aI1
aI1
aI1
aI1
aa(lp112
I2
aI3
aI3
aI3
aI4
aI4
aI4
aI5
aI4
aI4
aI4
aI5
aI4
aI5
aI5
aI4
aI4
aI4
aI5
aI5
aI4
aI5
aI6
aI6
aI7
aI7
aI0
aI0
aI0
aI1
aI0
aI0
aI1
aI0
aI0
aI1
aI1
aI0
aI0
aI0
aI1
aI0
aI1
aI0
aa(lp113
I2
aI2
aI2
aI2
aI2
aI2
aI2
aI2
aI2
aI3
aI5
aI6
aI5
aI6
aI5
aI5
aI0
aI6
aa(lp114
I2
aI2
aI3
aI3
aI3
aI4
aI3
aI5
aI4
aI5
aI6
aI5
aI5
aI6
aI5
aI5
aI4
aI3
aI4
aI3
aI3
aI4
aI4
aI4
aI5
aI6
aI6
aI7
aI1
aI0
aI7
aI0
aI7
aI6
aI5
aI4
aI5
aI4
aI4
aI5
aI6
aI7
aI0
aI0
aI0
aI1
aI1
aI0
aI1
aI0
aI7
aI7
aI0
aI0
aI0
aI1
aI1
aI1
aI1
aI1
aI2
aI1
aI2
aa(lp115
I2
aI2
aI3
aI2
aI3
aI4
aI4
aI4
aI4
aI4
aI5
aI4
aI4
aI4
aI4
aI4
aI4
aI4
aI4
aI5
aI4
aI5
aI5
aI6
aI5
aI6
aI6
aI7
aI7
aI7
aI1
aI1
aI3
aI2
aI1
aI1
aI0
aI0
aI0
aI2
aa(lp116
I2
aI2
aI2
aI2
aI2
aI3
aI4
aI3
aI5
aI4
aI5
aI5
aI5
aI5
aI5
aI3
aI3
aI4
aI3
aI3
aI4
aI3
aI4
aI5
aI5
aI5
aI6
aI6
aI6
aI7
aI6
aI7
aI7
aI7
aI0
aI0
aI0
aI1
aI0
aI1
aI0
aI7
aI7
aI7
aI0
aI0
aI1
aI1
aI1
aI1
aI2
aa(lp117
I2
aI3
aI2
aI2
aI2
aI3
aI3
aI3
aI4
aI4
aI5
aI5
aI5
aI4
aI5
aI3
aI3
aI2
aI2
aI2
aI2
aI2
aI2
aI2
aI2
aI3
aI4
aI5
aI6
aI5
aI6
aI6
aI6
aI6
aI6
aI7
aI6
aI6
aI6
aI7
aI6
aI7
aI7
aI0
aI1
aI0
aI1
aI1
aI0
aI1
aI1
aI7
aI6
aI6
aI6
aI6
aI6
aI6
aI6
aI6
aI7
aI0
aI1
aI2
aI2
aI2
aI2
aa(lp118
I2
aI3
aI4
aI3
aI2
aI2
aI2
aI3
aI3
aI4
aI4
aI4
aI5
aI4
aI5
aI4
aI5
aI4
aI5
aI4
aI5
aI4
aI5
aI5
aI5
aI7
aI0
aI1
aI0
aI1
aI0
aI1
aI0
aI1
aI0
aI1
aI0
aI1
aI0
aI0
aI6
aI6
aI5
aI5
aI5
aI5
aI4
aI4
aI5
aI5
aI6
aI7
aI0
aI0
aI0
aI1
aI0
aI0
aI1
aI0
aI1
aI0
aI1
aI0
aa.