(lp0
(lp1
I2
aI2
aI2
aI3
aI2
aI1
aI2
aI2
aI2
aI2
aI2
aI2
aI2
aI3
aI3
aI5
aI4
aI4
aI5
aI4
aI4
aI4
aI4
aI4
aI4
aI4
aI4
aI4
aI4
aI4
aI4
aI4
aI4
aI5
aI6
aI6
aI7
aI7
aI0
aI0
aI0
aI0
aI0
aI0
aI0
aI0
aI1
aI0
aI0
aI0
aI0
aI0
aI6
aI6
aI6
aI6
aI6
aI6
aI6
aI6
aI6
aI6
aI7
aI0
aI0
aI1
aa(lp2
I3
aI3
aI4
aI4
aI4
aI5
aI4
aI3
aI2
aI2
aI2
aI2
aI2
aI2
aI2
aI2
aI2
aI1
aI0
aI0
aI1
aI0
aI1
aI0
aI1
aI2
aI3
aI4
aI4
aI4
aI5
aI5
aI4
aI4
aI4
aI4
aI4
aI4
aI4
aI3
aI4
aI4
aI4
aI4
aI4
aI4
aI5
aI6
aI6
aI7
aI0
aI0
aI0
aI0
aI0
aI0
aI0
aI0
aI6
aI6
aI5
aI6
aI6
aI6
aI6
aI6
aI6
aI6
aI6
aI6
aI6
aI7
aI0
aI0
aI0
aI0
aI7
aI0
aI0
aI1
aI0
aI1
aI0
aa(lp3
I2
aI2
aI3
aI3
aI4
aI3
aI4
aI5
aI4
aI5
aI4
aI5
aI4
aI5
aI4
aI4
aI5
aI4
aI5
aI4
aI5
aI4
aI5
aI7
aI7
aI0
aI0
aI1
aI0
aI0
aI1
aI0
aI1
aI0
aI1
aI4
aa(lp4
I2
aI2
aI2
aI2
aI3
aI3
aI3
aI4
aI4
aI4
aI4
aI4
aI3
aI3
aI3
aI4
aI3
aI4
aI4
aI4
aI5
aI4
aI5
aI6
aI5
aI6
aI6
aI5
aI6
aI6
aI6
aI6
aI6
aI6
aI6
aI7
aI7
aI0
aI0
aI1
aI1
aI2
aI3
aI4
aI3
aI1
aI2
aI2
aI2
aI2
aI2
aI1
aI0
aI0
aI0
aI7
aI0
aI6
aI6
aI6
aI5
aI6
aI6
aI7
aI0
aI1
aI1
aI2
aI1
aI0
aI1
aI0
aI6
aI6
aI6
aI6
aI5
aI6
aI5
aI5
aI6
aI7
aI0
aI0
aI1
aI1
aI2
aI1
aI2
aa(lp5
I2
aI3
aI5
aI4
aI4
aI5
aI4
aI4
aI4
aI4
aI4
aI4
aI4
aI4
aI4
aI4
aI4
aI5
aI4
aI3
aI4
aI5
aI6
aI7
aI0
aI0
aI0
aI0
aI0
aI0
aI0
aI0
aI0
aI0
aI0
aI0
aI0
aI0
aI1
aI0
aI0
aI0
aI1
aa(lp6
I3
aI2
aI1
aI2
aI2
aI2
aI3
aI3
aI4
aI4
aI4
aI4
aI5
aI5
aI5
aI5
aI3
aI2
aI2
aI1
aI2
aI2
aI2
aI2
aI2
aI2
aI2
aI3
aI4
aI5
aI6
aI6
aI6
aI6
aI6
aI6
aI6
aI5
aI6
aI6
aI6
aI6
aI6
aI6
aI6
aI5
aI6
aI6
aI6
aI7
aI0
aI1
aI1
aI2
aI1
aI2
aI1
aI1
aI1
aI1
aI0
aI1
aI7
aI6
aI6
aI6
aI5
aI7
aI0
aI0
aa(lp7
I2
aI2
aI2
aI2
aI3
aI3
aI3
aI4
aI4
aI4
aI4
aI5
aI3
aI2
aI3
aI3
aI3
aI4
aI4
aI4
aI4
aI5
aI4
aI5
aI5
aI6
aI6
aI5
aI6
aI6
aI6
aI6
aI7
aI7
aI0
aI1
aI2
aI2
aI2
aI2
aI1
aI2
aI1
aI0
aI7
aI7
aI6
aI7
aI6
aI7
aI0
aI0
aI0
aI1
aI0
aI0
aI2
aa(lp8
I2
aI2
aI3
aI4
aI5
aI6
aI6
aI5
aI6
aI6
aI5
aI6
aI6
aI6
aI5
aI0
aI5
aa(lp9
I2
aI2
aI2
aI3
aI2
aI3
aI3
aI4
aI4
aI4
aI5
aI4
aI3
aI4
aI3
aI4
aI5
aI4
aI5
aI4
aI4
aI4
aI4
aI4
aI5
aI6
aI6
aI7
aI0
aI0
aI0
aI0
aI0
aI0
aI0
aI0
aI0
aI7
aI7
aI6
aI6
aI7
aI7
aI7
aI0
aI0
aI1
aI1
aI1
aI2
aa(lp10
I2
aI3
aI5
aI4
aI4
aI4
aI4
aI5
aI3
aI2
aI3
aI4
aI5
aI6
aI6
aI6
aI5
aI4
aI4
aI4
aI4
aI5
aI4
aI4
aI5
aI5
aI6
aI7
aI0
aI0
aI1
aI0
aI1
aI0
aI0
aI1
aI0
aI6
aI6
aI5
aI6
aI6
aI6
aI6
aI7
aI0
aI0
aI0
aI1
aI0
aI1
aI0
aI1
aI3
aI3
aI5
aI4
aI3
aI2
aI1
aI2
aI2
aI1
aI0
aI0
aI0
aI1
aI0
aa(lp11
I2
aI3
aI5
aI5
aI5
aI5
aI5
aI5
aI5
aI5
aI4
aI5
aI4
aI4
aI4
aI3
aI2
aI2
aI3
aI4
aI5
aI5
aI6
aI6
aI6
aI6
aI5
aI6
aI5
aI7
aI0
aI1
aI1
aI2
aI1
aI7
aI0
aI0
aI0
aI1
aI0
aI0
aI1
aI1
aI1
aI0
aI1
aI1
aI1
aI1
aI2
aa(lp12
I2
aI3
aI3
aI5
aI4
aI5
aI5
aI4
aI5
aI3
aI2
aI2
aI2
aI3
aI4
aI3
aI5
aI4
aI5
aI4
aI5
aI5
aI4
aI5
aI6
aI5
aI6
aI6
aI6
aI6
aI7
aI7
aI7
aI0
aI0
aI0
aI0
aI1
aI0
aI0
aI1
aI1
aI1
aI0
aI1
aI0
aI1
aI1
aI0
aI1
aa(lp13
I2
aI2
aI3
aI3
aI3
aI4
aI4
aI3
aI4
aI4
aI4
aI5
aI4
aI4
aI4
aI5
aI4
aI5
aI5
aI5
aI6
aI6
aI5
aI6
aI5
aI6
aI5
aI6
aI6
aI6
aI6
aI6
aI6
aI7
aI6
aI7
aI0
aI1
aI0
aI0
aI0
aI1
aI1
aI1
aI0
aI1
aI2
aI1
aI0
aI1
aI2
aI1
aI1
aI1
aI2
aI1
aI0
aa(lp14
I2
aI2
aI2
aI2
aI2
aI3
aI2
aI3
aI3
aI4
aI4
aI4
aI4
aI5
aI4
aI5
aI4
aI5
aI4
aI4
aI4
aI5
aI4
aI4
aI4
aI4
aI5
aI6
aI6
aI7
aI0
aI0
aI0
aI0
aI1
aI0
aI0
aI1
aI0
aI0
aI1
aI0
aI0
aI1
aI0
aI7
aI6
aI6
aI5
aI4
aI4
aI5
aI4
aI5
aI6
aI7
aI0
aI0
aI0
aI0
aI1
aI0
aI1
aI0
aa(lp15
I2
aI2
aI2
aI3
aI2
aI2
aI3
aI2
aI3
aI3
aI3
aI4
aI4
aI5
aI6
aI6
aI5
aI3
aI3
aI3
aI3
aI3
aI4
aI4
aI4
aI5
aI5
aI5
aI5
aI6
aI6
aI7
aI1
aI1
aI1
aI0
aI0
aI0
aI7
aI7
aI6
aI6
aI7
aI6
aI7
aI7
aI1
aI2
aI1
aI1
aI1
aI2
aI2
aI5
aI6
aa(lp16
I2
aI2
aI3
aI3
aI4
aI4
aI4
aI5
aI4
aI5
aI4
aI5
aI5
aI5
aI4
aI4
aI5
aI4
aI5
aI4
aI5
aI5
aI5
aI6
aI6
aI6
aI7
aI7
aI0
aI0
aI1
aI1
aI1
aI1
aI1
aI1
aI7
aI0
aI7
aI0
aI1
aI0
aI1
aI1
aI1
aI2
aI1
aa(lp17
I2
aI2
aI3
aI2
aI2
aI2
aI2
aI2
aI2
aI3
aI4
aI3
aI4
aI5
aI4
aI5
aI4
aI4
aI4
aI5
aI4
aI5
aI5
aI4
aI4
aI5
aI4
aI5
aI5
aI6
aI7
aI0
aI0
aI0
aI1
aI0
aI1
aI0
aI1
aI0
aI0
aI1
aI0
aI1
aI0
aI0
aI7
aI6
aI6
aI5
aI0
aa(lp18
I2
aI2
aI2
aI2
aI2
aI2
aI2
aI2
aI3
aI4
aI5
aI6
aI6
aI6
aI6
aI6
aI5
aI6
aI6
aI6
aI6
aI5
aI6
aI5
aI4
aI3
aI2
aI3
aI4
aI3
aI4
aI3
aI4
aI3
aI4
aI4
aI5
aI5
aI5
aI6
aI5
aI6
aI7
aI6
aI7
aI0
aI7
aI0
aI1
aI3
aI2
aI3
aI2
aI1
aI7
aI0
aI0
aI7
aI7
aI7
aI7
aI7
aI7
aI7
aI1
aI1
aI2
aI2
aI1
aI2
aI1
aI1
aI2
aI2
aa(lp19
I2
aI2
aI2
aI3
aI4
aI5
aI5
aI7
aI5
aI6
aI6
aI5
aI6
aI6
aI5
aI4
aI3
aI4
aI4
aI4
aI3
aI4
aI4
aI4
aI4
aI4
aI4
aI5
aI4
aI5
aI6
aI6
aI6
aI7
aI6
aI6
aI7
aI0
aI0
aI1
aI2
aI2
aI3
aI3
aI1
aI0
aI0
aI0
aI0
aI7
aI0
aI0
aI0
aI0
aI7
aI0
aI0
aI0
aI1
aI0
aI1
aI3
aI2
aI2
aI1
aI2
aI2
aa(lp20
I2
aI3
aI3
aI4
aI5
aI5
aI5
aI4
aI5
aI5
aI5
aI4
aI5
aI5
aI4
aI5
aI4
aI4
aI5
aI4
aI5
aI5
aI7
aI0
aI0
aI0
aI0
aI1
aI0
aI0
aI1
aI0
aI1
aI0
aI1
aI1
aI1
aI0
aI1
aI1
aI0
aI1
aa(lp21
I2
aI2
aI2
aI3
aI2
aI3
aI4
aI5
aI5
aI6
aI5
aI5
aI5
aI4
aI4
aI4
aI3
aI3
aI4
aI4
aI4
aI4
aI5
aI4
aI5
aI5
aI6
aI6
aI7
aI7
aI0
aI0
aI0
aI0
aI0
aI0
aI0
aI7
aI6
aI7
aI7
aI7
aI1
aI1
aI0
aI1
aI1
aI2
aI1
aI1
aI2
aI2
aa(lp22
I2
aI2
aI2
aI2
aI2
aI2
aI2
aI3
aI2
aI2
aI2
aI2
aI2
aI2
aI2
aI2
aI2
aI2
aI3
aI4
aI5
aI4
aI5
aI4
aI4
aI5
aI4
aI5
aI5
aI4
aI5
aI4
aI4
aI5
aI4
aI3
aI4
aa(lp23
I2
aI3
aI3
aI5
aI4
aI5
aI4
aI5
aI4
aI4
aI4
aI5
aI3
aI3
aI5
aI5
aI5
aI5
aI4
aI4
aI5
aI5
aI6
aI7
aI0
aI0
aI1
aI0
aI0
aI0
aI0
aI1
aI0
aI0
aI1
aI0
aI0
aI0
aI6
aI5
aI6
aI6
aI6
aI6
aI6
aI7
aI7
aI0
aI1
aI2
aI2
aI2
aI2
aI2
aI2
aI2
aI2
aI2
aI1
aI1
aI4
aa(lp24
I3
aI4
aI4
aI4
aI4
aI4
aI5
aI3
aI2
aI2
aI1
aI0
aI0
aI0
aI0
aI1
aI1
aI3
aI4
aI4
aI4
aI3
aI3
aI4
aI4
aI5
aI6
aI5
aI4
aI5
aI4
aI4
aI4
aI4
aI4
aI4
aI4
aI5
aI6
aI7
aI0
aI0
aI0
aI0
aI0
aI0
aI1
aI0
aI6
aI7
aI6
aI7
aI7
aI0
aI0
aI0
aI0
aI0
aI0
aI1
aI0
aa(lp25
I2
aI2
aI2
aI2
aI2
aI2
aI3
aI3
aI3
aI4
aI4
aI3
aI5
aI5
aI5
aI6
aI5
aI5
aI6
aI5
aI5
aI4
aI4
aI4
aI4
aI4
aI5
aI5
aI5
aI6
aI6
aI6
aI6
aI7
aI0
aI0
aI0
aI0
aI1
aI1
aI1
aI1
aI4
aa(lp26
I2
aI3
aI4
aI4
aI4
aI5
aI4
aI4
aI4
aI3
aI2
aI1
aI2
aI1
aI1
aI2
aI3
aI4
aI4
aI5
aI4
aI5
aI4
aI4
aI4
aI5
aI4
aI4
aI3
aI4
aI5
aI7
aI7
aI0
aI7
aI0
aI0
aI0
aI1
aI0
aI6
aI6
aI6
aI6
aI7
aI7
aI7
aI0
aI0
aI0
aI0
aI1
aI0
aI1
aI0
aa(lp27
I2
aI2
aI2
aI3
aI4
aI4
aI5
aI5
aI5
aI6
aI5
aI5
aI3
aI2
aI2
aI2
aI3
aI2
aI3
aI4
aI4
aI5
aI4
aI5
aI5
aI6
aI5
aI5
aI6
aI5
aI6
aI5
aI6
aI6
aI6
aI6
aI6
aI7
aI7
aI1
aI2
aI3
aI2
aI1
aI2
aI2
aI1
aI1
aI2
aI2
aI1
aI1
aI1
aI0
aI6
aI6
aI6
aI6
aI6
aI6
aI5
aI6
aI6
aI6
aI6
aI5
aI6
aI6
aI7
aI0
aI1
aI1
aI1
aI1
aI2
aI1
aI2
aI1
aI0
aI1
aI2
aI2
aI2
aI5
aI6
aI5
aa(lp28
I3
aI3
aI4
aI5
aI6
aI5
aI6
aI6
aI6
aI5
aI6
aI6
aI5
aI3
aI2
aI3
aI2
aI3
aI3
aI4
aI3
aI4
aI3
aI5
aI4
aI5
aI5
aI5
aI5
aI6
aI6
aI6
aI6
aI6
aI6
aI7
aI6
aI6
aI7
aI6
aI7
aI7
aI7
aI1
aI2
aI2
aI2
aI3
aI2
aI2
aI3
aI2
aI2
aI2
aI2
aI1
aI1
aI0
aI0
aI6
aI7
aI6
aI7
aI6
aI6
aI6
aI7
aI0
aI0
aI1
aI0
aI0
aI0
aI0
aI1
aI1
aI2
aI3
aI3
aI1
aI2
aI2
aI1
aI2
aI2
aa(lp29
I2
aI2
aI2
aI2
aI2
aI2
aI2
aI2
aI2
aI2
aI2
aI2
aI3
aI2
aI2
aI2
aI2
aI3
aI3
aI4
aI5
aI5
aI5
aI6
aI5
aI6
aI5
aI5
aI6
aI5
aI5
aI6
aI5
aI5
aI4
aI4
aI4
aI3
aI5
aI5
aI6
aI6
aI6
aI7
aI7
aI1
aI0
aI0
aI1
aI1
aI1
aI1
aI1
aI1
aI1
aI2
aI1
aI1
aI2
aI1
aI0
aI2
aa(lp30
I3
aI4
aI4
aI5
aI4
aI4
aI4
aI5
aI4
aI4
aI4
aI4
aI4
aI4
aI4
aI3
aI3
aI3
aI1
aI0
aI1
aI0
aI1
aI1
aI1
aI2
aI2
aI2
aI3
aI5
aI6
aI5
aI5
aI5
aI4
aI3
aI1
aI2
aI2
aI3
aI4
aI5
aI6
aI6
aI5
aI6
aI6
aI6
aI6
aI7
aI6
aI6
aI7
aI7
aI7
aI7
aI0
aI0
aI0
aI0
aI0
aI0
aI0
aI0
aI0
aI0
aI1
aI0
aI0
aI1
aI1
aa(lp31
I2
aI2
aI2
aI2
aI2
aI2
aI2
aI2
aI3
aI2
aI3
aI3
aI4
aI3
aI4
aI4
aI4
aI4
aI5
aI4
aI3
aI3
aI2
aI3
aI4
aI5
aI6
aI6
aI6
aI6
aI6
aI7
aI6
aI5
aI6
aI5
aI6
aI5
aI6
aI6
aI6
aI6
aI6
aI6
aI7
aI7
aI0
aI0
aI1
aI1
aI1
aI2
aI2
aI2
aI1
aI2
aI2
aI2
aI2
aI1
aI1
aI0
aI7
aI6
aI7
aI6
aI6
aI6
aI6
aI5
aI0
aa(lp32
I2
aI2
aI2
aI3
aI2
aI1
aI2
aI2
aI3
aI4
aI3
aI4
aI4
aI3
aI4
aI4
aI4
aI4
aI3
aI4
aI4
aI4
aI3
aI4
aI4
aI4
aI3
aI4
aI5
aI6
aI7
aI0
aI0
aI0
aI7
aI0
aI7
aI0
aI0
aI0
aI0
aI7
aI0
aI0
aI0
aI0
aI7
aI0
aI0
aI5
aI6
aI6
aI6
aI5
aI0
aI6
aa(lp33
I2
aI2
aI2
aI3
aI2
aI3
aI4
aI3
aI3
aI4
aI4
aI4
aI4
aI4
aI5
aI4
aI4
aI3
aI3
aI4
aI4
aI5
aI6
aI7
aI6
aI6
aI5
aI5
aI6
aI5
aI5
aI6
aI6
aI7
aI7
aI0
aI0
aI0
aI0
aI1
aI0
aI1
aI1
aI2
aI1
aI2
aI2
aI2
aI1
aI0
aI0
aI7
aI7
aI7
aI5
aI7
aI5
aI6
aI5
aI5
aI7
aI0
aI0
aI0
aI1
aI2
aI1
aI2
aI2
aa(lp34
I2
aI2
aI3
aI3
aI4
aI4
aI4
aI5
aI4
aI5
aI4
aI5
aI5
aI5
aI4
aI5
aI5
aI5
aI5
aI5
aI6
aI5
aI5
aI6
aI5
aI6
aI6
aI6
aI7
aI0
aI0
aI0
aI0
aI0
aI0
aI1
aI1
aI0
aI1
aI0
aI1
aI1
aI1
aI1
aI1
aI2
aI1
aI1
aI2
aI1
aI2
aa(lp35
I2
aI2
aI2
aI2
aI3
aI2
aI3
aI2
aI3
aI3
aI3
aI3
aI4
aI4
aI4
aI4
aI4
aI5
aI5
aI4
aI5
aI4
aI5
aI5
aI5
aI5
aI5
aI6
aI6
aI6
aI6
aI6
aI6
aI6
aI7
aI6
aI7
aI0
aI7
aI0
aI0
aI7
aI0
aI1
aI0
aI1
aI0
aI0
aI1
aI1
aI1
aI1
aI2
aI2
aI2
aI1
aI2
aI3
aI2
aI3
aI2
aI3
aI4
aI3
aI4
aI5
aI5
aI4
aI4
aI5
aI4
aI5
aI6
aI5
aI6
aI6
aI6
aI6
aI6
aI6
aI0
aI0
aI0
aI0
aI0
aI0
aI1
aI0
aI1
aI2
aI1
aI1
aI0
aa(lp36
I2
aI2
aI2
aI2
aI2
aI2
aI2
aI3
aI2
aI3
aI3
aI5
aI7
aI6
aI6
aI6
aI6
aI6
aI5
aI4
aI5
aI3
aI2
aI3
aI2
aI3
aI2
aI3
aI4
aI3
aI3
aI4
aI4
aI5
aI4
aI5
aI5
aI5
aI6
aI5
aI6
aI6
aI6
aI6
aI6
aI7
aI6
aI6
aI7
aI6
aI7
aI7
aI7
aI0
aI0
aI1
aI1
aI3
aI5
aI3
aI3
aI3
aI2
aI2
aI3
aI2
aI2
aI2
aI2
aI2
aI1
aI1
aI0
aI0
aI0
aI0
aI7
aI6
aI7
aI6
aI7
aI6
aI6
aI6
aI7
aI0
aI0
aI1
aI1
aI0
aI7
aI0
aa(lp37
I2
aI3
aI4
aI4
aI5
aI4
aI5
aI4
aI5
aI4
aI5
aI4
aI5
aI4
aI5
aI5
aI4
aI5
aI4
aI5
aI5
aI5
aI7
aI0
aI0
aI1
aI0
aI1
aI0
aI6
aI6
aI6
aI6
aI7
aI0
aI0
aI0
aI1
aI0
aI1
aI1
aI1
aI0
aI1
aI3
aI4
aI4
aI4
aI5
aI5
aI3
aI2
aI2
aI1
aI1
aI0
aI1
aI0
aI1
aI0
aI1
aI0
aa(lp38
I2
aI2
aI2
aI2
aI3
aI4
aI4
aI4
aI5
aI5
aI5
aI5
aI5
aI5
aI5
aI5
aI5
aI5
aI5
aI5
aI5
aI4
aI5
aI5
aI5
aI6
aI6
aI7
aI7
aI1
aI1
aI1
aI1
aI1
aI1
aI1
aI1
aI0
aI1
aI1
aI1
aI1
aI0
aI2
aa(lp39
I2
aI2
aI2
aI3
aI3
aI1
aI3
aI4
aI4
aI5
aI4
aI5
aI4
aI5
aI4
aI4
aI5
aI4
aI5
aI4
aI5
aI4
aI5
aI5
aI4
aI5
aI6
aI7
aI0
aI0
aI1
aI0
aI1
aI1
aI0
aI1
aI0
aI0
aI5
aI6
aI5
aI6
aI6
aI6
aI6
aI7
aI0
aI1
aI0
aI0
aI0
aI1
aI1
aI1
aI1
aI1
aI2
aa(lp40
I3
aI3
aI4
aI4
aI5
aI4
aI5
aI4
aI5
aI4
aI5
aI4
aI5
aI5
aI4
aI5
aI4
aI5
aI5
aI5
aI5
aI6
aI7
aI0
aI1
aI0
aI0
aI1
aI1
aI1
aI0
aI1
aI0
aI1
aI0
aI1
aI1
aI0
aI0
aI2
aa(lp41
I3
aI3
aI4
aI5
aI5
aI4
aI4
aI3
aI2
aI1
aI1
aI1
aI0
aI1
aI1
aI0
aI1
aI2
aI3
aI3
aI4
aI5
aI5
aI5
aI5
aI5
aI4
aI4
aI5
aI5
aI5
aI5
aI4
aI5
aI5
aI5
aI4
aI5
aI5
aI6
aI6
aI7
aI0
aI1
aI0
aI1
aI1
aI1
aI0
aI1
aI1
aI7
aI6
aI7
aI7
aI7
aI0
aI1
aI1
aI1
aI0
aI1
aa(lp42
I2
aI2
aI2
aI3
aI1
aI2
aI2
aI2
aI2
aI2
aI3
aI2
aI3
aI4
aI4
aI4
aI4
aI5
aI5
aI5
aI5
aI4
aI3
aI3
aI2
aI2
aI2
aI1
aI2
aI2
aI2
aI3
aI5
aI5
aI5
aI6
aI6
aI6
aI5
aI6
aI6
aI6
aI6
aI7
aI7
aI7
aI7
aI0
aI0
aI1
aI0
aI0
aI1
aI1
aI0
aI1
aI2
aI5
aa(lp43
I2
aI3
aI4
aI4
aI4
aI5
aI4
aI4
aI5
aI4
aI3
aI2
aI2
aI3
aI4
aI5
aI6
aI6
aI7
aI5
aI0
aa(lp44
I2
aI3
aI3
aI4
aI4
aI4
aI3
aI1
aI0
aI0
aI0
aI1
aI1
aI2
aI3
aI4
aI3
aI5
aI4
aI4
aI4
aI4
aI3
aI3
aI4
aI4
aI5
aI6
aI6
aI6
aI5
aI4
aI5
aI4
aI4
aI4
aI5
aI5
aI6
aI6
aI6
aI7
aI0
aI0
aI1
aI0
aI0
aI0
aI2
aa(lp45
I2
aI2
aI3
aI3
aI4
aI5
aI5
aI7
aI0
aI5
aI4
aI5
aI4
aI4
aI4
aI3
aI2
aI3
aI4
aI3
aI4
aI4
aI4
aI4
aI4
aI5
aI5
aI5
aI6
aI6
aI7
aI7
aI0
aI7
aI0
aI0
aI0
aI0
aI0
aI0
aI0
aI1
aI0
aI0
aI0
aI1
aI0
aI0
aI1
aI1
aa(lp46
I2
aI2
aI3
aI4
aI5
aI4
aI4
aI4
aI5
aI4
aI4
aI4
aI5
aI4
aI5
aI4
aI4
aI5
aI4
aI4
aI5
aI5
aI5
aI7
aI7
aI1
aI0
aI1
aI0
aI1
aI0
aI0
aI1
aI0
aI0
aI1
aI0
aI0
aI1
aI0
aI0
aI1
aI7
aa(lp47
I2
aI2
aI3
aI4
aI5
aI6
aI5
aI4
aI5
aI5
aI5
aI4
aI3
aI3
aI5
aI6
aI6
aI6
aI6
aI6
aI5
aI5
aI5
aI5
aI5
aI5
aI5
aI4
aI5
aI6
aI6
aI7
aI1
aI0
aI1
aI1
aI0
aI1
aI1
aI1
aI7
aI7
aI0
aI7
aI1
aI0
aI1
aI2
aI1
aI2
aI3
aI4
aI4
aI3
aI1
aI1
aI1
aI1
aI1
aI1
aI1
aa(lp48
I2
aI2
aI3
aI2
aI2
aI1
aI2
aI2
aI3
aI3
aI4
aI3
aI4
aI4
aI4
aI4
aI3
aI4
aI5
aI4
aI4
aI4
aI4
aI4
aI4
aI4
aI5
aI5
aI6
aI5
aI6
aI6
aI6
aI7
aI6
aI7
aI7
aI7
aI7
aI0
aI0
aI7
aI0
aI0
aI0
aI0
aI0
aI0
aI0
aI0
aI0
aI1
aI0
aI1
aa(lp49
I2
aI2
aI2
aI2
aI2
aI2
aI2
aI2
aI3
aI2
aI2
aI2
aI3
aI3
aI3
aI4
aI3
aI5
aI5
aI4
aI5
aI4
aI3
aI2
aI3
aI3
aI4
aI4
aI4
aI5
aI5
aI5
aI6
aI5
aI6
aI6
aI6
aI6
aI6
aI7
aI6
aI7
aI0
aI7
aI0
aI0
aI1
aI2
aI1
aI0
aI0
aI0
aI1
aI1
aI1
aI1
aI0
aI2
aa(lp50
I2
aI2
aI2
aI2
aI2
aI2
aI2
aI2
aI2
aI2
aI2
aI2
aI2
aI2
aI3
aI4
aI4
aI4
aI4
aI5
aI5
aI4
aI5
aI4
aI4
aI5
aI4
aI4
aI4
aI3
aI4
aI4
aI4
aI5
aI6
aI5
aI7
aI7
aI7
aI0
aI0
aI0
aI0
aI0
aI0
aI0
aI0
aI1
aI1
aI0
aI1
aI0
aI0
aI2
aa(lp51
I2
aI2
aI3
aI3
aI5
aI6
aI5
aI6
aI6
aI6
aI6
aI6
aI6
aI5
aI7
aI5
aI5
aI4
aI3
aI1
aI2
aI2
aI2
aI2
aI2
aI2
aI2
aI2
aI2
aI3
aI3
aI3
aI4
aI4
aI4
aI4
aI5
aI5
aI5
aI5
aI5
aI5
aI6
aI6
aI5
aI6
aI6
aI6
aI7
aI6
aI7
aI0
aI0
aI0
aI1
aI1
aI3
aI4
aI4
aI3
aI1
aI2
aI2
aI1
aI1
aI2
aI1
aI1
aI0
aI0
aI7
aI6
aI6
aI6
aI6
aI6
aI6
aI6
aI5
aI6
aI5
aI6
aI6
aI6
aI7
aI0
aI0
aI0
aI1
aI0
aI0
aI0
aI1
aI1
aI1
aI2
aI2
aI2
aI2
aI2
aI2
aI2
aI2
aa(lp52
I2
aI2
aI3
aI3
aI4
aI3
aI4
aI5
aI4
aI4
aI5
aI5
aI5
aI5
aI4
aI5
aI5
aI5
aI4
aI5
aI5
aI4
aI5
aI6
aI6
aI7
aI6
aI7
aI7
aI0
aI1
aI1
aI0
aI1
aI1
aI1
aI0
aI1
aI1
aI0
aI1
aI1
aI0
aI1
aI1
aI0
aa(lp53
I2
aI2
aI2
aI3
aI3
aI3
aI3
aI4
aI3
aI4
aI4
aI4
aI4
aI4
aI4
aI4
aI5
aI4
aI5
aI4
aI5
aI5
aI6
aI5
aI6
aI5
aI6
aI6
aI6
aI6
aI7
aI7
aI7
aI0
aI0
aI0
aI0
aI0
aI0
aI1
aI0
aI1
aI0
aI1
aI0
aI1
aI1
aI0
aI0
aI1
aa(lp54
I2
aI2
aI2
aI2
aI3
aI3
aI4
aI4
aI4
aI5
aI4
aI4
aI5
aI4
aI5
aI5
aI5
aI5
aI5
aI4
aI5
aI6
aI5
aI5
aI5
aI5
aI6
aI7
aI0
aI0
aI1
aI1
aI1
aI1
aI1
aI1
aI1
aI1
aI1
aI0
aI1
aI0
aI1
aI0
aI6
aI6
aI6
aI5
aI6
aI6
aI6
aI6
aI5
aI6
aI5
aI7
aI6
aI7
aI1
aI1
aI2
aI2
aI2
aI1
aI2
aI1
aI2
aI2
aI2
aa(lp55
I2
aI2
aI2
aI2
aI2
aI2
aI3
aI3
aI4
aI4
aI5
aI4
aI5
aI4
aI3
aI2
aI2
aI3
aI2
aI2
aI3
aI2
aI3
aI4
aI3
aI4
aI4
aI5
aI5
aI5
aI6
aI5
aI6
aI6
aI5
aI6
aI7
aI7
aI0
aI1
aI1
aI2
aI2
aI2
aI1
aI0
aI2
aa(lp56
I2
aI2
aI2
aI2
aI2
aI3
aI2
aI2
aI3
aI2
aI3
aI3
aI4
aI4
aI4
aI5
aI4
aI5
aI5
aI4
aI3
aI4
aI3
aI4
aI5
aI4
aI5
aI5
aI6
aI5
aI6
aI6
aI6
aI6
aI6
aI6
aI7
aI6
aI6
aI6
aI7
aI7
aI7
aI7
aI0
aI1
aI2
aI3
aI3
aI2
aI3
aI2
aI2
aI2
aI3
aI2
aI1
aI2
aI2
aI1
aI0
aI0
aI7
aI7
aI6
aI6
aI7
aI0
aI1
aI2
aI2
aI2
aI1
aI0
aI1
aI0
aI7
aI6
aI6
aI6
aI6
aI6
aI6
aI6
aI5
aI0
aa(lp57
I2
aI3
aI4
aI5
aI4
aI4
aI5
aI5
aI4
aI4
aI3
aI3
aI3
aI4
aI5
aI7
aI6
aI6
aI5
aI4
aI4
aI5
aI4
aI5
aI4
aI5
aI6
aI7
aI0
aI1
aI0
aI0
aI0
aI0
aI0
aI2
aa(lp58
I2
aI2
aI2
aI3
aI3
aI3
aI3
aI4
aI3
aI3
aI4
aI4
aI4
aI4
aI4
aI4
aI4
aI3
aI3
aI2
aI3
aI3
aI4
aI5
aI5
aI6
aI6
aI7
aI7
aI7
aI5
aI6
aI5
aI6
aI6
aI6
aI6
aI7
aI7
aI7
aI0
aI0
aI0
aI0
aI1
aI1
aI0
aI1
aI2
aI3
aI2
aI3
aI1
aI0
aI7
aI0
aI7
aI7
aI6
aI6
aI6
aI6
aI7
aI0
aI0
aI1
aI2
aa(lp59
I2
aI3
aI3
aI4
aI4
aI4
aI5
aI4
aI4
aI5
aI5
aI4
aI4
aI5
aI5
aI4
aI5
aI5
aI4
aI5
aI4
aI5
aI6
aI7
aI7
aI0
aI1
aI0
aI1
aI0
aI1
aI1
aI0
aI1
aI0
aI1
aI1
aI0
aI6
aI5
aI6
aI6
aI5
aI6
aI6
aI7
aI7
aI1
aI1
aI1
aI2
aI2
aI1
aI2
aI2
aI1
aI2
aa(lp60
I2
aI2
aI2
aI2
aI2
aI2
aI3
aI3
aI4
aI4
aI4
aI5
aI5
aI5
aI0
aa(lp61
I2
aI3
aI1
aI2
aI3
aI4
aI4
aI5
aI5
aI3
aI2
aI2
aI2
aI3
aI3
aI4
aI4
aI3
aI4
aI3
aI4
aI4
aI4
aI4
aI4
aI5
aI5
aI5
aI6
aI6
aI6
aI6
aI6
aI6
aI6
aI6
aI6
aI7
aI7
aI7
aI0
aI1
aI2
aI2
aI3
aI3
aI2
aI2
aI2
aI2
aI1
aI1
aI0
aI0
aI0
aI0
aI0
aI7
aI5
aI5
aI6
aI5
aI6
aI6
aI5
aI7
aI6
aI7
aI0
aI0
aI0
aI0
aI0
aI0
aI0
aI0
aI1
aI0
aI1
aI2
aa(lp62
I2
aI2
aI3
aI2
aI3
aI4
aI3
aI4
aI4
aI3
aI3
aI4
aI4
aI4
aI4
aI4
aI4
aI3
aI4
aI4
aI5
aI4
aI5
aI5
aI6
aI6
aI6
aI6
aI6
aI7
aI7
aI0
aI0
aI0
aI0
aI0
aI0
aI0
aI0
aI0
aI1
aI7
aI0
aI0
aI0
aI0
aI0
aI0
aI0
aa(lp63
I2
aI2
aI3
aI4
aI5
aI6
aI5
aI5
aI0
aa(lp64
I2
aI2
aI2
aI2
aI2
aI2
aI2
aI2
aI3
aI2
aI3
aI3
aI4
aI5
aI3
aI3
aI3
aI3
aI3
aI4
aI4
aI4
aI4
aI4
aI4
aI5
aI5
aI5
aI6
aI5
aI6
aI5
aI6
aI6
aI6
aI6
aI6
aI6
aI7
aI6
aI7
aI7
aI0
aI0
aI0
aI1
aI1
aI3
aI3
aI5
aI3
aI2
aI2
aI2
aI2
aI2
aI2
aI1
aI1
aI1
aI1
aI0
aI7
aI7
aI7
aI6
aI6
aI6
aI5
aI6
aI6
aI6
aI7
aI0
aI0
aI1
aI2
aI2
aI1
aI0
aI2
aI4
aa(lp65
I2
aI2
aI2
aI3
aI2
aI3
aI3
aI5
aI4
aI5
aI4
aI4
aI5
aI4
aI4
aI4
aI3
aI4
aI4
aI5
aI4
aI4
aI5
aI5
aI6
aI5
aI6
aI6
aI7
aI0
aI7
aI0
aI0
aI0
aI1
aI0
aI0
aI1
aI0
aI7
aI7
aI7
aI0
aI0
aI1
aI0
aI1
aI1
aI2
aa(lp66
I2
aI2
aI2
aI3
aI2
aI3
aI4
aI4
aI3
aI4
aI4
aI5
aI4
aI5
aI3
aI2
aI2
aI3
aI3
aI4
aI5
aI6
aI6
aI6
aI6
aI5
aI6
aI5
aI0
aa(lp67
I2
aI2
aI2
aI3
aI2
aI3
aI3
aI3
aI4
aI4
aI4
aI5
aI5
aI5
aI5
aI5
aI5
aI5
aI5
aI4
aI5
aI3
aI5
aI4
aI5
aI6
aI6
aI7
aI7
aI1
aI0
aI1
aI1
aI1
aI0
aI1
aI1
aI1
aI1
aI1
aI1
aI1
aI0
aI0
aI7
aI6
aI6
aI6
aI6
aI6
aI5
aI7
aI0
aI1
aI2
aa(lp68
I2
aI2
aI3
aI3
aI2
aI3
aI4
aI4
aI4
aI4
aI5
aI4
aI5
aI5
aI5
aI5
aI3
aI4
aI4
aI4
aI4
aI4
aI4
aI5
aI6
aI6
aI6
aI7
aI7
aI0
aI0
aI6
aI5
aI6
aI5
aI6
aI7
aI6
aI6
aI7
aI7
aI0
aI7
aI1
aI1
aI2
aI2
aI1
aI1
aI2
aI2
aI2
aI2
aI3
aI1
aI2
aI1
aI1
aI1
aI1
aI0
aI6
aI5
aI6
aI6
aI7
aI7
aI1
aI1
aI1
aa(lp69
I2
aI3
aI2
aI1
aI2
aI2
aI2
aI2
aI3
aI4
aI4
aI5
aI5
aI5
aI5
aI5
aI5
aI4
aI5
aI4
aI4
aI4
aI4
aI4
aI4
aI5
aI4
aI5
aI6
aI5
aI6
aI6
aI7
aI7
aI0
aI0
aI0
aI1
aI0
aI1
aI1
aI0
aI1
aI1
aI0
aI0
aI0
aI6
aI6
aI7
aI0
aI1
aI1
aI1
aa(lp70
I2
aI2
aI2
aI2
aI2
aI2
aI2
aI2
aI3
aI2
aI3
aI4
aI5
aI6
aI5
aI6
aI6
aI6
aI6
aI6
aI6
aI5
aI0
aa(lp71
I2
aI2
aI3
aI3
aI4
aI5
aI6
aI6
aI5
aI5
aI6
aI5
aI5
aI4
aI5
aI4
aI3
aI3
aI3
aI4
aI4
aI4
aI4
aI5
aI4
aI5
aI6
aI6
aI6
aI7
aI7
aI7
aI0
aI7
aI0
aI0
aI0
aI0
aI1
aI0
aI1
aI1
aI0
aI1
aI1
aI1
aI1
aI1
aI2
aI1
aa(lp72
I3
aI4
aI4
aI5
aI4
aI5
aI4
aI5
aI4
aI5
aI4
aI5
aI4
aI5
aI5
aI4
aI5
aI5
aI4
aI5
aI5
aI6
aI7
aI0
aI1
aI1
aI0
aI1
aI1
aI0
aI1
aI0
aI1
aI0
aI1
aI1
aI0
aI1
aI0
aI1
aI0
aI1
aa(lp73
I2
aI3
aI4
aI5
aI5
aI4
aI5
aI5
aI4
aI5
aI5
aI5
aI5
aI4
aI5
aI4
aI5
aI5
aI5
aI5
aI5
aI5
aI7
aI7
aI0
aI1
aI1
aI1
aI0
aI1
aI0
aI2
aa(lp74
I2
aI3
aI3
aI4
aI5
aI4
aI4
aI5
aI5
aI4
aI5
aI4
aI5
aI5
aI4
aI5
aI4
aI5
aI5
aI4
aI5
aI5
aI6
aI7
aI0
aI0
aI0
aI1
aI1
aI0
aI1
aI0
aI1
aI1
aI0
aI1
aI0
aI1
aI1
aI0
aI1
aI0
aI0
aa(lp75
I2
aI2
aI2
aI2
aI3
aI3
aI3
aI4
aI3
aI4
aI4
aI5
aI5
aI4
aI5
aI5
aI5
aI4
aI5
aI5
aI5
aI5
aI5
aI4
aI5
aI6
aI7
aI0
aI1
aI1
aI0
aI1
aI1
aI1
aI0
aI1
aI0
aI6
aI6
aI6
aI7
aI7
aI0
aI0
aI0
aI1
aI0
aI1
aI1
aa(lp76
I2
aI3
aI4
aI4
aI4
aI5
aI5
aI5
aI5
aI4
aI5
aI5
aI5
aI5
aI5
aI3
aI5
aI5
aI6
aI5
aI5
aI0
aa(lp77
I2
aI3
aI1
aI2
aI2
aI3
aI3
aI3
aI3
aI3
aI3
aI3
aI3
aI4
aI3
aI4
aI4
aI4
aI4
aI5
aI4
aI5
aI4
aI5
aI5
aI5
aI6
aI6
aI6
aI6
aI7
aI6
aI6
aI7
aI6
aI7
aI7
aI0
aI0
aI0
aI1
aI2
aI2
aI3
aI2
aI3
aI3
aI2
aI2
aI2
aI1
aI1
aI0
aI0
aI0
aI0
aI0
aI6
aI6
aI5
aI5
aI5
aI6
aI6
aI7
aI0
aI0
aI0
aI0
aI1
aI0
aI1
aI2
aI5
aa(lp78
I2
aI2
aI3
aI3
aI4
aI4
aI4
aI5
aI5
aI5
aI5
aI3
aI2
aI2
aI2
aI2
aI2
aI2
aI2
aI3
aI4
aI4
aI5
aI6
aI6
aI6
aI6
aI5
aI6
aI6
aI6
aI5
aI5
aI6
aI6
aI5
aI6
aI6
aI6
aI6
aI6
aI7
aI7
aI0
aI0
aI0
aI1
aI1
aI1
aI2
aI1
aI1
aI0
aI2
aI2
aa(lp79
I2
aI2
aI2
aI2
aI2
aI2
aI3
aI4
aI4
aI5
aI5
aI5
aI5
aI5
aI4
aI5
aI5
aI5
aI4
aI5
aI5
aI5
aI5
aI4
aI5
aI5
aI5
aI6
aI7
aI7
aI1
aI0
aI1
aI1
aI1
aI1
aI1
aI0
aI2
aa(lp80
I3
aI1
aI2
aI2
aI2
aI2
aI2
aI2
aI2
aI2
aI2
aI2
aI3
aI4
aI4
aI4
aI5
aI6
aI6
aI6
aI5
aI6
aI6
aI6
aI5
aI4
aI4
aI4
aI4
aI3
aI5
aI4
aI4
aI4
aI5
aI5
aI6
aI5
aI6
aI6
aI7
aI6
aI6
aI6
aI7
aI7
aI0
aI1
aI1
aI2
aI2
aI2
aI2
aI2
aI2
aI1
aI0
aI0
aI7
aI5
aI6
aI7
aI7
aI1
aI0
aI0
aI0
aI0
aI1
aI1
aa(lp81
I2
aI2
aI2
aI3
aI3
aI4
aI4
aI5
aI6
aI6
aI5
aI0
aI5
aI0
aI5
aI0
aI5
aI0
aI5
aI0
aI5
aI6
aI5
aI0
aI5
aI0
aa(lp82
I2
aI2
aI2
aI2
aI3
aI2
aI3
aI3
aI4
aI4
aI4
aI4
aI5
aI5
aI4
aI5
aI5
aI5
aI5
aI5
aI5
aI5
aI3
aI2
aI1
aI2
aI2
aI2
aI2
aI3
aI5
aI5
aI6
aI5
aI6
aI6
aI6
aI6
aI6
aI6
aI7
aI7
aI0
aI1
aI0
aI1
aI1
aI1
aI1
aI1
aI1
aI0
aI1
aI0
aI1
aI1
aI7
aI6
aI6
aI7
aI7
aI7
aa(lp83
I2
aI2
aI2
aI2
aI2
aI2
aI3
aI4
aI3
aI1
aI2
aI3
aI4
aI4
aI4
aI5
aI6
aI5
aI6
aI5
aI5
aI4
aI3
aI4
aI3
aI4
aI4
aI4
aI4
aI5
aI5
aI6
aI5
aI6
aI6
aI6
aI7
aI6
aI7
aI0
aI7
aI0
aI0
aI0
aI1
aI0
aI0
aI0
aI7
aI7
aI0
aI0
aI0
aI1
aI0
aI1
aI2
aI1
aa(lp84
I2
aI2
aI2
aI2
aI2
aI2
aI3
aI3
aI5
aI5
aI6
aI6
aI6
aI6
aI5
aI5
aI0
aI6
aa(lp85
I2
aI3
aI3
aI2
aI2
aI2
aI3
aI3
aI4
aI4
aI4
aI4
aI4
aI4
aI5
aI4
aI5
aI4
aI5
aI4
aI5
aI5
aI4
aI5
aI5
aI6
aI7
aI0
aI0
aI1
aI0
aI1
aI1
aI0
aI1
aI1
aI0
aI1
aI0
aI0
aI0
aI6
aI7
aI6
aI7
aI5
aI5
aI5
aI7
aI0
aI0
aI0
aI1
aI1
aa(lp86
I2
aI3
aI4
aI5
aI6
aI5
aI6
aI6
aI5
aI6
aI6
aI6
aI6
aI6
aI6
aI6
aI6
aI5
aI6
aI5
aI3
aI2
aI2
aI2
aI2
aI3
aI2
aI2
aI3
aI3
aI4
aI4
aI4
aI5
aI5
aI6
aI5
aI5
aI6
aI6
aI6
aI6
aI6
aI6
aI6
aI7
aI0
aI1
aI2
aI2
aI2
aI2
aI2
aI1
aI2
aI1
aI0
aI2
aa(lp87
I2
aI2
aI3
aI3
aI4
aI4
aI3
aI2
aI3
aI3
aI4
aI4
aI4
aI4
aI4
aI4
aI4
aI4
aI4
aI4
aI4
aI3
aI5
aI5
aI6
aI6
aI7
aI7
aI0
aI7
aI0
aI0
aI0
aI0
aI6
aI5
aI6
aI6
aI6
aI6
aI6
aI6
aI6
aI7
aI7
aI0
aI0
aI0
aI0
aI0
aI1
aI0
aI1
aI1
aI1
aI1
aI2
aI2
aI2
aa(lp88
I2
aI2
aI3
aI2
aI2
aI1
aI2
aI2
aI3
aI2
aI3
aI4
aI4
aI4
aI4
aI4
aI5
aI5
aI6
aI5
aI5
aI5
aI4
aI4
aI4
aI4
aI4
aI5
aI4
aI5
aI6
aI5
aI6
aI6
aI6
aI6
aI6
aI7
aI7
aI7
aI0
aI0
aI1
aI1
aI1
aI1
aI2
aI1
aI1
aI0
aI7
aI0
aI0
aI0
aI0
aI0
aI0
aI0
aa(lp89
I2
aI3
aI4
aI4
aI4
aI4
aI5
aI5
aI5
aI5
aI5
aI6
aI5
aI6
aI5
aI6
aI5
aI4
aI3
aI4
aI4
aI4
aI4
aI5
aI5
aI6
aI6
aI7
aI7
aI7
aI7
aI0
aI0
aI0
aI1
aI1
aI1
aI0
aI0
aI7
aI0
aI0
aI0
aI1
aI1
aI2
aI1
aI2
aI2
aI2
aI2
aI2
aI2
aI2
aI3
aI2
aI1
aI7
aa(lp90
I2
aI3
aI4
aI5
aI5
aI5
aI4
aI5
aI5
aI4
aI5
aI4
aI5
aI4
aI5
aI4
aI3
aI1
aI1
aI1
aI1
aI1
aI1
aI2
aI1
aI2
aI3
aI4
aI4
aI4
aI5
aI5
aI5
aI5
aI5
aI6
aI5
aI4
aI5
aI6
aI7
aI7
aI7
aI7
aI0
aI7
aI1
aI0
aI0
aI1
aI0
aI1
aI1
aI0
aI1
aI0
aI1
aI1
aI1
aI0
aa(lp91
I2
aI2
aI2
aI2
aI2
aI2
aI3
aI3
aI4
aI5
aI5
aI5
aI3
aI3
aI4
aI4
aI4
aI4
aI4
aI4
aI4
aI4
aI5
aI5
aI4
aI5
aI5
aI6
aI6
aI6
aI6
aI6
aI6
aI7
aI0
aI1
aI1
aI2
aI3
aI1
aI2
aI1
aI1
aI0
aI0
aI0
aI0
aI0
aI7
aI6
aI7
aI7
aI1
aI0
aI7
aI6
aI7
aI0
aI1
aa(lp92
I2
aI3
aI3
aI3
aI2
aI2
aI2
aI3
aI5
aI4
aI5
aI4
aI5
aI5
aI5
aI3
aI2
aI3
aI5
aI6
aI6
aI6
aI5
aI4
aI5
aI4
aI5
aI4
aI5
aI6
aI7
aI0
aI1
aI0
aI1
aI0
aI1
aI0
aI6
aI5
aI7
aI0
aI1
aI2
aI2
aI2
aI1
aI1
aI1
aI0
aI1
aI0
aI2
aa(lp93
I2
aI2
aI2
aI3
aI2
aI2
aI2
aI2
aI2
aI2
aI3
aI3
aI5
aI6
aI6
aI5
aI6
aI6
aI6
aI6
aI6
aI7
aI5
aI4
aI5
aI3
aI2
aI2
aI1
aI2
aI2
aI2
aI2
aI3
aI3
aI4
aI3
aI4
aI4
aI4
aI4
aI4
aI5
aI4
aI5
aI5
aI5
aI6
aI6
aI6
aI6
aI6
aI7
aI6
aI7
aI7
aI0
aI0
aI1
aI1
aI2
aI2
aI2
aI3
aI5
aI5
aI0
aa(lp94
I3
aI4
aI4
aI4
aI4
aI5
aI5
aI5
aI3
aI2
aI2
aI2
aI1
aI1
aI1
aI0
aI1
aI0
aI1
aI1
aI2
aI3
aI4
aI4
aI5
aI4
aI5
aI4
aI5
aI5
aI4
aI4
aI5
aI5
aI0
aa(lp95
I3
aI3
aI4
aI5
aI5
aI0
aa(lp96
I2
aI2
aI2
aI2
aI2
aI2
aI2
aI2
aI2
aI2
aI2
aI2
aI2
aI2
aI2
aI2
aI2
aI3
aI3
aI4
aI3
aI5
aI4
aI4
aI5
aI4
aI5
aI5
aI5
aI6
aI5
aI5
aI6
aI5
aI6
aI6
aI6
aI6
aI6
aI6
aI7
aI6
aI7
aI6
aI7
aI0
aI0
aI0
aI0
aI0
aI0
aI1
aI1
aI0
aI6
aI7
aI0
aa(lp97
I2
aI2
aI2
aI2
aI2
aI2
aI2
aI2
aI3
aI4
aI5
aI4
aI4
aI4
aI4
aI5
aI5
aI5
aI4
aI3
aI3
aI4
aI4
aI4
aI5
aI5
aI6
aI5
aI5
aI6
aI6
aI5
aI6
aI6
aI6
aI7
aI7
aI7
aI0
aI1
aI1
aI0
aI1
aI1
aI0
aI2
aa(lp98
I2
aI2
aI2
aI2
aI2
aI2
aI3
aI2
aI2
aI3
aI4
aI4
aI4
aI3
aI5
aI4
aI4
aI4
aI4
aI4
aI5
aI4
aI4
aI4
aI4
aI4
aI4
aI4
aa(lp99
I2
aI2
aI2
aI3
aI3
aI3
aI3
aI4
aI4
aI5
aI4
aI5
aI4
aI4
aI5
aI4
aI4
aI4
aI4
aI4
aI4
aI4
aI4
aa(lp100
I2
aI2
aI2
aI2
aI3
aI2
aI3
aI4
aI3
aI4
aI5
aI5
aI5
aI3
aI3
aI3
aI4
aI3
aI4
aI4
aI5
aI4
aI5
aI4
aI5
aI6
aI5
aI6
aI7
aI7
aI0
aI0
aI1
aI3
aI2
aI1
aI0
aI0
aI0
aI6
aI7
aI6
aI7
aI7
aI7
aI1
aI1
aI1
aI1
aI1
aI7
aI6
aI5
aI6
aI5
aI7
aI7
aI1
aI1
aa(lp101
I2
aI3
aI3
aI2
aI1
aI1
aI3
aI3
aI3
aI4
aI4
aI4
aI4
aI4
aI4
aI4
aI4
aI5
aI4
aI4
aI4
aI4
aI4
aI4
aI4
aI5
aI5
aI6
aI6
aI7
aI7
aI0
aI7
aI1
aI1
aI0
aI7
aI6
aI6
aI6
aI7
aI7
aI7
aI0
aI0
aI1
aI0
aI1
aI0
aI0
aI1
aI0
aa(lp102
I2
aI2
aI2
aI2
aI3
aI3
aI4
aI5
aI3
aI2
aI3
aI4
aI5
aI5
aI5
aI4
aI5
aI6
aI5
aI4
aI5
aI5
aI5
aI5
aI0
aa(lp103
I2
aI2
aI2
aI2
aI2
aI2
aI2
aI3
aI4
aI5
aI4
aI4
aI5
aI4
aI4
aI5
aI4
aI4
aI5
aI4
aI5
aI6
aI5
aI6
aI5
aI6
aI6
aI6
aI5
aI6
aI6
aI6
aI6
aI6
aI7
aI6
aI7
aI0
aI1
aI2
aI3
aI2
aI2
aI2
aI2
aI2
aI2
aI1
aI2
aI2
aI1
aI0
aI2
aI2
aI5
aa(lp104
I2
aI2
aI3
aI4
aI5
aI5
aI5
aI6
aI5
aI5
aI4
aI5
aI4
aI5
aI3
aI3
aI1
aI0
aI1
aI2
aI1
aI1
aI2
aI1
aI2
aI2
aI2
aI2
aI3
aI2
aI2
aI3
aI3
aI4
aI4
aI4
aI5
aI5
aI0
aa(lp105
I2
aI2
aI2
aI2
aI2
aI3
aI2
aI3
aI3
aI3
aI4
aI4
aI3
aI4
aI5
aI4
aI4
aI4
aI4
aI4
aI4
aI4
aI5
aI4
aI4
aI5
aI5
aI6
aI7
aI6
aI7
aI0
aI0
aI1
aI1
aI1
aI0
aI0
aI1
aI0
aI0
aI0
aI0
aI0
aI0
aI0
aa(lp106
I2
aI2
aI2
aI2
aI3
aI3
aI3
aI4
aI4
aI3
aI5
aI4
aI4
aI5
aI4
aI4
aI4
aI4
aI4
aI5
aI4
aI3
aI5
aI5
aI5
aI7
aI7
aI0
aI0
aI0
aI0
aI1
aI0
aI1
aI0
aI6
aI6
aI6
aI6
aI6
aI7
aI7
aI7
aI0
aI0
aI0
aI1
aI0
aI1
aI1
aI2
aa(lp107
I2
aI2
aI2
aI2
aI2
aI2
aI2
aI2
aI3
aI2
aI2
aI2
aI3
aI3
aI3
aI3
aI4
aI4
aI4
aI5
aI4
aI4
aI4
aI3
aI4
aI5
aI6
aI6
aI6
aI7
aI0
aI0
aI0
aI0
aI1
aI0
aI0
aI0
aI0
aI6
aI7
aI6
aI6
aI6
aI6
aI6
aI7
aI6
aI5
aI7
aI6
aI6
aI5
aI6
aI6
aI7
aI0
aI1
aI2
aI2
aI2
aa(lp108
I2
aI3
aI2
aI2
aI2
aI1
aI2
aI3
aI2
aI3
aI5
aI6
aI5
aI6
aI6
aI6
aI5
aI6
aI6
aI6
aI6
aI5
aI3
aI3
aI3
aI3
aI3
aI3
aI4
aI4
aI4
aI5
aI4
aI5
aI6
aI5
aI5
aI6
aI5
aI6
aI6
aI6
aI6
aI7
aI7
aI1
aI2
aI2
aI2
aI1
aI2
aI1
aI2
aI1
aI1
aI0
aI0
aI7
aI7
aI6
aI6
aI6
aI7
aI6
aI6
aI7
aI0
aI1
aI1
aI0
aI1
aI1
aI1
aI2
aI2
aa(lp109
I3
aI4
aI4
aI5
aI4
aI5
aI5
aI4
aI5
aI5
aI3
aI3
aI3
aI4
aI4
aI4
aI4
aI4
aI5
aI5
aI6
aI5
aI6
aI6
aI6
aI7
aI7
aI0
aI0
aI0
aI1
aI0
aI0
aI1
aI0
aI1
aI0
aI1
aI1
aI0
aI1
aI1
aI0
aI0
aI1
aI2
aa(lp110
I2
aI2
aI3
aI4
aI4
aI3
aI4
aI5
aI5
aI4
aI5
aI4
aI3
aI2
aI2
aI2
aI3
aI3
aI4
aI4
aI3
aI4
aI5
aI5
aI5
aI5
aI6
aI6
aI6
aI6
aI7
aI6
aI7
aI7
aI0
aI0
aI0
aI0
aI0
aI0
aI0
aI0
aI0
aI0
aI1
aI1
aI0
aI0
aI1
aI0
aI0
aa(lp111
I2
aI2
aI2
aI3
aI2
aI3
aI3
aI3
aI3
aI3
aI4
aI5
aI6
aI6
aI7
aI0
aI7
aI6
aI6
aI5
aI5
aI4
aI3
aI2
aI2
aI3
aI3
aI2
aI3
aI3
aI3
aI4
aI4
aI4
aI4
aI4
aI5
aI6
aI5
aI6
aI6
aI6
aI7
aI6
aI6
aI7
aI7
aI7
aI7
aI0
aI7
aI5
aI7
aI0
aI0
aI1
aI1
aI0
aI0
aI0
aI0
aI1
aI0
aI1
aI1
aI0
aa(lp112
I2
aI2
aI3
aI4
aI3
aI4
aI4
aI4
aI4
aI4
aI4
aI3
aI4
aI4
aI4
aI4
aI4
aI3
aI4
aI4
aI5
aI4
aI5
aI6
aI6
aI7
aI0
aI7
aI0
aI0
aI0
aI7
aI6
aI6
aI6
aI6
aI6
aI6
aI7
aI6
aI7
aI0
aI0
aI0
aI0
aI7
aI0
aI0
aI0
aI1
aI1
aI1
aI3
aI3
aI4
aI4
aI4
aI3
aI4
aI3
aI2
aI1
aI0
aI0
aI0
aI0
aI1
aI0
aI0
aa(lp113
I2
aI2
aI2
aI2
aI2
aI3
aI2
aI2
aI2
aI3
aI3
aI4
aI5
aI4
aI5
aI5
aI6
aI6
aI5
aI6
aI5
aI3
aI2
aI3
aI3
aI2
aI3
aI4
aI4
aI5
aI5
aI5
aI5
aI5
aI6
aI6
aI6
aI6
aI6
aI6
aI7
aI6
aI7
aI7
aI0
aI0
aI0
aI0
aI0
aI1
aI0
aI0
aI0
aI6
aI6
aI7
aI7
aI0
aI0
aI1
aI1
aI1
aI2
aI1
aI2
aI2
aI2
aa(lp114
I2
aI2
aI2
aI3
aI4
aI4
aI4
aI4
aI5
aI4
aI4
aI5
aI4
aI4
aI5
aI4
aI3
aI3
aI4
aI3
aI4
aI5
aI5
aI7
aI0
aI7
aI6
aI0
aa(lp115
I2
aI2
aI2
aI2
aI2
aI2
aI3
aI3
aI4
aI4
aI4
aI5
aI5
aI5
aI5
aI6
aI5
aI5
aI4
aI4
aI4
aI5
aI4
aI5
aI5
aI5
aI6
aI5
aI5
aI6
aI6
aI6
aI6
aI7
aI7
aI0
aI1
aI2
aI2
aI3
aI1
aI2
aI1
aI1
aI1
aI1
aI7
aI0
aI0
aI0
aI1
aI2
aI1
aI2
aI1
aI1
aI2
aI1
aI0
aI6
aI6
aI5
aI6
aI5
aI6
aI6
aI5
aI5
aI6
aI5
aI7
aI0
aI0
aI1
aI1
aI2
aI1
aI2
aI1
aa(lp116
I2
aI2
aI2
aI2
aI3
aI3
aI4
aI3
aI3
aI4
aI4
aI3
aI4
aI4
aI5
aI4
aI3
aI3
aI2
aI3
aI2
aI2
aI3
aI2
aI3
aI4
aI5
aI7
aI6
aI5
aI6
aI7
aI6
aI6
aI6
aI6
aI7
aI5
aI5
aI6
aI5
aI6
aI6
aI6
aI6
aI7
aI7
aI0
aI1
aI0
aI1
aI2
aI1
aI2
aI2
aI2
aI1
aI0
aI1
aI0
aI0
aI7
aI0
aI7
aI0
aI6
aI5
aI0
aa(lp117
I2
aI2
aI2
aI3
aI3
aI4
aI4
aI4
aI4
aI4
aI5
aI3
aI4
aI3
aI3
aI3
aI4
aI3
aI4
aI5
aI4
aI5
aI5
aI6
aI5
aI6
aI6
aI6
aI6
aI7
aI0
aI0
aI0
aI0
aI0
aI0
aI1
aI0
aI0
aI0
aI1
aI0
aI7
aI0
aI7
aI0
aI7
aI0
aI1
aa(lp118
I2
aI2
aI2
aI3
aI5
aI5
aI3
aI2
aI3
aI4
aI3
aI4
aI4
aI4
aI5
aI4
aI5
aI4
aI5
aI4
aI3
aI5
aI5
aI6
aI6
aI6
aI6
aI5
aI6
aI6
aI5
aI6
aI6
aI6
aI6
aI7
aI7
aI7
aI0
aI0
aI1
aI1
aI2
aI1
aI2
aI2
aI2
aI2
aI2
aI3
aI2
aI2
aI1
aI1
aI0
aI1
aI0
aI0
aI7
aI6
aI6
aI6
aI5
aI6
aI5
aI5
aI6
aI6
aI7
aI0
aI1
aI1
aI1
aI1
aI1
aI1
aI1
aI2
aa(lp119
I2
aI3
aI2
aI3
aI4
aI3
aI4
aI4
aI4
aI4
aI4
aI4
aI3
aI3
aI2
aI3
aI3
aI5
aI7
aI5
aI6
aI5
aI0
aa(lp120
I2
aI2
aI2
aI3
aI3
aI4
aI4
aI5
aI4
aI4
aI4
aI4
aI4
aI4
aI4
aI4
aI4
aI4
aI4
aI4
aI4
aI4
aI4
aI5
aI6
aI7
aI0
aI0
aI0
aI0
aI0
aI0
aI0
aI7
aI5
aI6
aI6
aI7
aI7
aI7
aI0
aI0
aI0
aI1
aI0
aI1
aI1
aI1
aI1
aa(lp121
I2
aI2
aI2
aI2
aI2
aI2
aI2
aI2
aI3
aI3
aI3
aI3
aI4
aI4
aI4
aI4
aI4
aI5
aI5
aI4
aI5
aI4
aI5
aI5
aI5
aI6
aI5
aI6
aI6
aI6
aI6
aI6
aI5
aI7
aI6
aI6
aI7
aI7
aI7
aI0
aI7
aI0
aI0
aI1
aI0
aI1
aI0
aI0
aI0
aI1
aI1
aI1
aI1
aI2
aI2
aa(lp122
I2
aI2
aI2
aI3
aI3
aI4
aI3
aI4
aI4
aI4
aI4
aI5
aI4
aI4
aI5
aI4
aI5
aI4
aI5
aI4
aI5
aI4
aI5
aI5
aI6
aI6
aI7
aI0
aI0
aI0
aI1
aI1
aI0
aI1
aI7
aI6
aI6
aI7
aI0
aI0
aI7
aI0
aI0
aI0
aI1
aI1
aI0
aI1
aI2
aI2
aa(lp123
I2
aI2
aI2
aI2
aI3
aI3
aI3
aI4
aI3
aI5
aI6
aI6
aI5
aI6
aI5
aI5
aI5
aI3
aI4
aI3
aI4
aI4
aI4
aI4
aI4
aI4
aI5
aI6
aI5
aI6
aI6
aI7
aI7
aI7
aI0
aI7
aI0
aI0
aI0
aI1
aI1
aI1
aI0
aI1
aI0
aI0
aI0
aI0
aI0
aI1
aI1
aa(lp124
I2
aI2
aI2
aI3
aI3
aI4
aI3
aI2
aI2
aI2
aI2
aI2
aI2
aI3
aI4
aI5
aI4
aI5
aI5
aI4
aI4
aI5
aI4
aI5
aI4
aI5
aI4
aI5
aI4
aI5
aI6
aI6
aI7
aI0
aI0
aI1
aI0
aI1
aI1
aI0
aI1
aI0
aI0
aI0
aI0
aI2
aa(lp125
I2
aI2
aI2
aI3
aI2
aI3
aI4
aI3
aI4
aI4
aI4
aI3
aI4
aI5
aI4
aI4
aI4
aI5
aI3
aI2
aI3
aI5
aI5
aI7
aI6
aI5
aI6
aI5
aI6
aI5
aI6
aI5
aI6
aI6
aI6
aI6
aI6
aI7
aI6
aI7
aI0
aI7
aI0
aI0
aI0
aI1
aI1
aI1
aI2
aI2
aI2
aI2
aI3
aI2
aI3
aI2
aI3
aI2
aI1
aI1
aI0
aI0
aI0
aI0
aI0
aI0
aI0
aI7
aI7
aI6
aI5
aI0
aa(lp126
I2
aI2
aI3
aI3
aI5
aI4
aI5
aI5
aI5
aI3
aI2
aI3
aI4
aI3
aI4
aI5
aI4
aI5
aI5
aI5
aI4
aI5
aI5
aI6
aI5
aI6
aI6
aI7
aI7
aI0
aI7
aI1
aI1
aI2
aI3
aI3
aI2
aI1
aI1
aI0
aI1
aI0
aI0
aI6
aI6
aI5
aI6
aI6
aI6
aI7
aI1
aI1
aI1
aI1
aI1
aI0
aI2
aa(lp127
I2
aI2
aI2
aI3
aI4
aI5
aI6
aI6
aI5
aI4
aI4
aI5
aI6
aI6
aI5
aI3
aI2
aI2
aI2
aI2
aI3
aI2
aI2
aI2
aI3
aI3
aI4
aI3
aI4
aI4
aI4
aI5
aI5
aI5
aI5
aI6
aI6
aI6
aI6
aI6
aI7
aI6
aI7
aI7
aI0
aI1
aI2
aI3
aI3
aI2
aI2
aI1
aI2
aI1
aI0
aI0
aI7
aI6
aI6
aI7
aI6
aI6
aI6
aI6
aI6
aI6
aI7
aI6
aI7
aI7
aI1
aI0
aI1
aI2
aI1
aI2
aI1
aI0
aI1
aI1
aI2
aa(lp128
I2
aI2
aI3
aI3
aI4
aI4
aI4
aI4
aI3
aI4
aI4
aI4
aI4
aI4
aI4
aI4
aI4
aI4
aI4
aI3
aI3
aI5
aI5
aI6
aI7
aI0
aI7
aI0
aI0
aI0
aI0
aI0
aI7
aI0
aI2
aa(lp129
I2
aI2
aI2
aI3
aI4
aI4
aI4
aI4
aI4
aI4
aI5
aI4
aI4
aI5
aI4
aI4
aI4
aI3
aI4
aI3
aI2
aI2
aI2
aI3
aI5
aI6
aI6
aI6
aI6
aI7
aI6
aI5
aI4
aI5
aI6
aI7
aI0
aI0
aI1
aI0
aI0
aI1
aI0
aI0
aI1
aI0
aI0
aI1
aI0
aI0
aI0
aI1
aI0
aI0
aI6
aI5
aI6
aI6
aI6
aI7
aI1
aI2
aI2
aa(lp130
I2
aI2
aI2
aI2
aI2
aI2
aI2
aI2
aI2
aI2
aI3
aI5
aI5
aI6
aI6
aI6
aI6
aI6
aI6
aI6
aI5
aI6
aI6
aI6
aI5
aI4
aI3
aI3
aI2
aI3
aI3
aI4
aI4
aI4
aI4
aI5
aI5
aI6
aI5
aI6
aI6
aI6
aI6
aI6
aI7
aI7
aI0
aI0
aI1
aI2
aI3
aI3
aI1
aI2
aI1
aI4
aa(lp131
I2
aI2
aI2
aI2
aI2
aI2
aI3
aI2
aI3
aI3
aI2
aI3
aI4
aI4
aI5
aI5
aI5
aI5
aI3
aI3
aI3
aI3
aI4
aI3
aI5
aI5
aI5
aI5
aI6
aI6
aI5
aI6
aI6
aI6
aI6
aI7
aI6
aI7
aI7
aI0
aI0
aI1
aI2
aI2
aI2
aI3
aI2
aI2
aI1
aI0
aI2
aI4
aa(lp132
I2
aI3
aI2
aI2
aI2
aI2
aI3
aI1
aI3
aI3
aI5
aI4
aI5
aI4
aI4
aI5
aI4
aI5
aI4
aI4
aI5
aI4
aI4
aI4
aI4
aI4
aI5
aI5
aI6
aI7
aI0
aI0
aI1
aI0
aI0
aI0
aI1
aI0
aI0
aI1
aI0
aI0
aI0
aI1
aI0
aI0
aI2
aa(lp133
I3
aI3
aI2
aI2
aI2
aI2
aI2
aI2
aI3
aI4
aI4
aI4
aI4
aI3
aI4
aI5
aI4
aI4
aI4
aI4
aI4
aI4
aI4
aI4
aI4
aI4
aI5
aI6
aI6
aI7
aI1
aI0
aI0
aI7
aI0
aI1
aI0
aI0
aI6
aI6
aI6
aI6
aI5
aI6
aI7
aI7
aI1
aI1
aI2
aI2
aI2
aI2
aI2
aI1
aI0
aI0
aI0
aI6
aI6
aI6
aI7
aI6
aI6
aI6
aI7
aI0
aI1
aa(lp134
I2
aI3
aI5
aI4
aI5
aI5
aI5
aI5
aI4
aI5
aI5
aI4
aI4
aI5
aI4
aI4
aI4
aI4
aI3
aI2
aI1
aI1
aI1
aI1
aI2
aI1
aI1
aI2
aI2
aI1
aI2
aI3
aI3
aI4
aI3
aI4
aI5
aI5
aI5
aI5
aI6
aI5
aI6
aI6
aI7
aI1
aI1
aI2
aI1
aI1
aI0
aI2
aa(lp135
I2
aI3
aI4
aI4
aI4
aI5
aI5
aI5
aI5
aI5
aI4
aI3
aI1
aI2
aI2
aI2
aI3
aI3
aI4
aI4
aI4
aI5
aI4
aI5
aI5
aI0
aa(lp136
I3
aI4
aI4
aI4
aI5
aI3
aI2
aI2
aI2
aI2
aI3
aI3
aI4
aI4
aI4
aI4
aI5
aI4
aI5
aI5
aI5
aI5
aI5
aI6
aI5
aI6
aI5
aI6
aI6
aI6
aI6
aI6
aI7
aI7
aI0
aI0
aI0
aI0
aI0
aI1
aI0
aI1
aI0
aI1
aI1
aI1
aI1
aI0
aI1
aI0
aI1
aI1
aa(lp137
I2
aI3
aI4
aI5
aI4
aI5
aI4
aI5
aI5
aI4
aI5
aI4
aI3
aI2
aI1
aI2
aI2
aI3
aI2
aI3
aI3
aI4
aI3
aI4
aI4
aI5
aI5
aI5
aI6
aI6
aI6
aI7
aI1
aI2
aI1
aI1
aI0
aI7
aI7
aI6
aI6
aI5
aI6
aI5
aI5
aI4
aI3
aI2
aI2
aa(lp138
I2
aI2
aI3
aI4
aI5
aI4
aI4
aI4
aI4
aI4
aI4
aI5
aI4
aI4
aI4
aI4
aI4
aI4
aI4
aI4
aI4
aI4
aI5
aI6
aI7
aI0
aI0
aI0
aI0
aI0
aI0
aI0
aI6
aI5
aI6
aI6
aI6
aI5
aI7
aI7
aI0
aI1
aI1
aI1
aI1
aI0
aI1
aI1
aI1
aI0
aI1
aI1
aa(lp139
I2
aI2
aI2
aI2
aI3
aI3
aI4
aI3
aI4
aI4
aI5
aI5
aI5
aI0
aI0
aI0
aI0
aI0
aI5
aI0
aI5
aI0
aI6
aI6
aI5
aI6
aI5
aI5
aI4
aI5
aI4
aI4
aI3
aI2
aI1
aI1
aI0
aI1
aI0
aI1
aa(lp140
I2
aI3
aI2
aI2
aI2
aI3
aI4
aI4
aI4
aI5
aI3
aI3
aI4
aI4
aI3
aI4
aI4
aI5
aI4
aI5
aI4
aI5
aI5
aI5
aI6
aI6
aI5
aI6
aI6
aI6
aI6
aI6
aI6
aI6
aI7
aI7
aI7
aI6
aI7
aI7
aI0
aI0
aI1
aI2
aI3
aI4
aI3
aI3
aI2
aI3
aI2
aI2
aI2
aI2
aI2
aI2
aI1
aI1
aI1
aI1
aI0
aI0
aI0
aI0
aI6
aI6
aI5
aI6
aI6
aI5
aI5
aI6
aI7
aI0
aI1
aI1
aI2
aI1
aI1
aI1
aI1
aI0
aI1
aI4
aa(lp141
I2
aI2
aI2
aI3
aI2
aI3
aI3
aI3
aI4
aI3
aI4
aI4
aI5
aI4
aI5
aI4
aI5
aI5
aI3
aI2
aI2
aI3
aI5
aI6
aI5
aI6
aI5
aI6
aI6
aI5
aI6
aI5
aI6
aI6
aI7
aI6
aI7
aI1
aI1
aI2
aI1
aI1
aI1
aI2
aI1
aI1
aI0
aI0
aI1
aI1
aI0
aI0
aI0
aI7
aI6
aI6
aI5
aI0
aa(lp142
I3
aI4
aI4
aI4
aI4
aI5
aI4
aI5
aI4
aI4
aI5
aI4
aI4
aI4
aI4
aI4
aI5
aI4
aI4
aI5
aI5
aI6
aI7
aI0
aI0
aI1
aI0
aI0
aI0
aI0
aI1
aI4
aa(lp143
I2
aI3
aI4
aI5
aI5
aI0
aa(lp144
I2
aI2
aI2
aI3
aI3
aI4
aI3
aI4
aI5
aI4
aI5
aI5
aI5
aI3
aI3
aI4
aI3
aI4
aI4
aI5
aI5
aI6
aI5
aI5
aI6
aI5
aI6
aI6
aI6
aI6
aI6
aI6
aI7
aI6
aI7
aI0
aI0
aI1
aI2
aI2
aI3
aI2
aI2
aI2
aI2
aI2
aI1
aI1
aI0
aI0
aI6
aI7
aI5
aI6
aI6
aI6
aI6
aI7
aI7
aI0
aI1
aI1
aI0
aI0
aI0
aI1
aI1
aI2
aI1
aI1
aI2
aa(lp145
I2
aI2
aI2
aI2
aI2
aI3
aI3
aI3
aI3
aI3
aI4
aI5
aI5
aI4
aI5
aI5
aI5
aI3
aI2
aI3
aI3
aI3
aI5
aI5
aI5
aI6
aI5
aI6
aI6
aI5
aI6
aI6
aI6
aI6
aI7
aI7
aI0
aI0
aI0
aI1
aI1
aI1
aI1
aI7
aI7
aI7
aI7
aI0
aI7
aI0
aI0
aI0
aI1
aI2
aI1
aI2
aa(lp146
I2
aI2
aI2
aI2
aI2
aI2
aI3
aI2
aI3
aI4
aI5
aI5
aI3
aI2
aI2
aI2
aI3
aI2
aI3
aI2
aI2
aI3
aI3
aI4
aI4
aI4
aI5
aI6
aI5
aI6
aI5
aI6
aI6
aI6
aI5
aI6
aI7
aI7
aI0
aI1
aI1
aI3
aI3
aI1
aI2
aI2
aI2
aI1
aI0
aI6
aI7
aI6
aI7
aI6
aI6
aI7
aI6
aI6
aI6
aI6
aI6
aI6
aI6
aI7
aI1
aI1
aI2
aI1
aI0
aI2
aI4
aa(lp147
I2
aI3
aI4
aI5
aI4
aI4
aI5
aI4
aI4
aI3
aI3
aI3
aI5
aI5
aI7
aI5
aI5
aI0
aa(lp148
I2
aI2
aI3
aI5
aI4
aI5
aI4
aI4
aI5
aI4
aI5
aI4
aI4
aI5
aI3
aI2
aI2
aI3
aI5
aI6
aI5
aI5
aI6
aI6
aI6
aI5
aI4
aI4
aI5
aI6
aI6
aI7
aI0
aI0
aI0
aI2
aa(lp149
I2
aI2
aI3
aI3
aI3
aI4
aI4
aI5
aI5
aI5
aI3
aI3
aI4
aI4
aI4
aI4
aI5
aI5
aI5
aI5
aI6
aI5
aI5
aI6
aI6
aI5
aI6
aI6
aI6
aI6
aI6
aI7
aI7
aI0
aI0
aI1
aI0
aI2
aI2
aI1
aI2
aI1
aI2
aI1
aI2
aI2
aI1
aI2
aI2
aI4
aI4
aI5
aI5
aI5
aI6
aI5
aI6
aI6
aI6
aI6
aI6
aI6
aa(lp150
I2
aI2
aI3
aI2
aI3
aI4
aI3
aI3
aI4
aI4
aI4
aI5
aI4
aI5
aI4
aI5
aI4
aI3
aI2
aI3
aI2
aI2
aI3
aI4
aI4
aI5
aI5
aI6
aI6
aI6
aI7
aI6
aI6
aI6
aI6
aI6
aI6
aI6
aI6
aI6
aI6
aI6
aI7
aI7
aI0
aI1
aI1
aI2
aI2
aI1
aI1
aI2
aI1
aI1
aI0
aI1
aI0
aI0
aI6
aI6
aI5
aI6
aI5
aI5
aI6
aI6
aI6
aI7
aI0
aI0
aI1
aI0
aI1
aI2
aI1
aI1
aI2
aI1
aI2
aa(lp151
I2
aI2
aI2
aI3
aI4
aI4
aI4
aI4
aI4
aI3
aI1
aI2
aI2
aI2
aI2
aI2
aI3
aI4
aI4
aI4
aI4
aI4
aI4
aI4
aI4
aI5
aI5
aI5
aI4
aI5
aI6
aI5
aI6
aI6
aI6
aI6
aI6
aI7
aI6
aI7
aI7
aI7
aI0
aI0
aI0
aI0
aI0
aI0
aI1
aI0
aI0
aI0
aI0
aI1
aI0
aI1
aI0
aI0
aa(lp152
I2
aI2
aI2
aI2
aI2
aI2
aI2
aI3
aI2
aI2
aI2
aI3
aI3
aI4
aI5
aI5
aI6
aI5
aI6
aI5
aI5
aI5
aI0
aa(lp153
I2
aI2
aI2
aI2
aI2
aI3
aI3
aI3
aI4
aI4
aI5
aI4
aI5
aI5
aI3
aI3
aI3
aI4
aI4
aI4
aI4
aI5
aI5
aI5
aI5
aI6
aI5
aI6
aI6
aI6
aI6
aI6
aI6
aI7
aI0
aI7
aI0
aI1
aI0
aI1
aI1
aI0
aI1
aI0
aI0
aI6
aI6
aI7
aI7
aI0
aI1
aI0
aI1
aI1
aI1
aI2
aa(lp154
I2
aI2
aI3
aI4
aI5
aI4
aI5
aI4
aI5
aI4
aI5
aI5
aI4
aI4
aI5
aI5
aI0
aa(lp155
I2
aI2
aI2
aI3
aI3
aI3
aI3
aI5
aI4
aI5
aI4
aI5
aI5
aI5
aI4
aI3
aI4
aI4
aI5
aI4
aI4
aI5
aI5
aI5
aI6
aI6
aI6
aI6
aI7
aI7
aI7
aI1
aI0
aI0
aI1
aI0
aI1
aI1
aI0
aI2
aI4
aa(lp156
I2
aI2
aI2
aI3
aI3
aI4
aI3
aI4
aI4
aI3
aI5
aI5
aI5
aI5
aI5
aI5
aI4
aI5
aI5
aI5
aI0
aa(lp157
I2
aI2
aI3
aI4
aI3
aI4
aI4
aI4
aI5
aI4
aI5
aI4
aI5
aI5
aI4
aI4
aI3
aI3
aI3
aI2
aI2
aI3
aI2
aI2
aI3
aI5
aI5
aI6
aI6
aI6
aI6
aI6
aI7
aI7
aI7
aI6
aI6
aI5
aI5
aI6
aI5
aI7
aI7
aI1
aI0
aI1
aI1
aI1
aI0
aI1
aI1
aI0
aI1
aI1
aI0
aI0
aI1
aI4
aa(lp158
I3
aI5
aI4
aI4
aI4
aI5
aI4
aI5
aI3
aI4
aI5
aI5
aI5
aI0
aa(lp159
I2
aI3
aI2
aI2
aI2
aI3
aI2
aI2
aI2
aI2
aI2
aI3
aI4
aI4
aI5
aI5
aI3
aI3
aI4
aI4
aI5
aI6
aI6
aI6
aI6
aI6
aI5
aI5
aI4
aI5
aI5
aI4
aI5
aI5
aI5
aI6
aI7
aI7
aI0
aI1
aI0
aI1
aI1
aI1
aI1
aI7
aI0
aI0
aI1
aI2
aI2
aI2
aI1
aI0
aI2
aa(lp160
I2
aI3
aI4
aI4
aI5
aI4
aI5
aI6
aI5
aI5
aI0
aI5
aI6
aI0
aI0
aI1
aI1
aI1
aI0
aI1
aa(lp161
I3
aI2
aI2
aI2
aI3
aI2
aI3
aI3
aI3
aI3
aI4
aI4
aI4
aI5
aI5
aI5
aI5
aI4
aI3
aI3
aI4
aI4
aI4
aI5
aI6
aI7
aI0
aI0
aI7
aI5
aI6
aI5
aI5
aI5
aI6
aI5
aI6
aI7
aI0
aI0
aI0
aI1
aI1
aI1
aI2
aI1
aI2
aI2
aI1
aI1
aI1
aI2
aI1
aI0
aI0
aI0
aI6
aI7
aI6
aI6
aI7
aI6
aI6
aI6
aI7
aI0
aI1
aa(lp162
I2
aI3
aI4
aI4
aI4
aI4
aI4
aI5
aI6
aI6
aI5
aI5
aI5
aI3
aI3
aI4
aI3
aI3
aI4
aI5
aI5
aI5
aI6
aI5
aI6
aI6
aI5
aI6
aI6
aI6
aI7
aI6
aI7
aI0
aI0
aI0
aI1
aI1
aI1
aI0
aI0
aI7
aI0
aI1
aI0
aI0
aI1
aI0
aI1
aI2
aI1
aI1
aI2
aI2
aI2
aI2
aI2
aa(lp163
I2
aI2
aI2
aI3
aI2
aI3
aI3
aI3
aI4
aI4
aI4
aI4
aI4
aI5
aI4
aI4
aI3
aI4
aI3
aI4
aI4
aI5
aI5
aI5
aI5
aI6
aI6
aI6
aI6
aI7
aI7
aI0
aI0
aI0
aI0
aI1
aI1
aI0
aI6
aI6
aI6
aI6
aI6
aI6
aI7
aI7
aI1
aI1
aI1
aI0
aI0
aI0
aI1
aI1
aI1
aa(lp164
I2
aI2
aI3
aI3
aI4
aI4
aI5
aI3
aI3
aI2
aI3
aI3
aI4
aI4
aI3
aI4
aI4
aI4
aI5
aI5
aI5
aI5
aI5
aI6
aI5
aI6
aI6
aI6
aI6
aI6
aI7
aI6
aI7
aI6
aI6
aI5
aI6
aI7
aI7
aI0
aI1
aI0
aI0
aI1
aI0
aI1
aI0
aI1
aI0
aI1
aI1
aI1
aI0
aI0
aI1
aI2
aI1
aI2
aa(lp165
I2
aI2
aI2
aI2
aI3
aI3
aI4
aI4
aI4
aI4
aI5
aI4
aI4
aI3
aI4
aI4
aI4
aI4
aI3
aI2
aI3
aI4
aI4
aI5
aI6
aI6
aI6
aI6
aI5
aI6
aI5
aI6
aI6
aI6
aI7
aI7
aI0
aI0
aI1
aI1
aI2
aI2
aI1
aI3
aI1
aI0
aI0
aI7
aI6
aI6
aI6
aI5
aI6
aI6
aI7
aI0
aI0
aI1
aI1
aI1
aI0
aI2
aI2
aI1
aI2
aI2
aI5
aI5
aI6
aI6
aa(lp166
I2
aI2
aI2
aI3
aI3
aI3
aI4
aI4
aI5
aI5
aI4
aI5
aI5
aI4
aI5
aI5
aI5
aI3
aI2
aI2
aI2
aI3
aI3
aI4
aI5
aI5
aI6
aI7
aI6
aI6
aI6
aI5
aI6
aI6
aI6
aI6
aI5
aI6
aI6
aI7
aI0
aI0
aI1
aI1
aI2
aI1
aI1
aI1
aI1
aI1
aI1
aI1
aI1
aI0
aI1
aI0
aI0
aI2
aa(lp167
I2
aI2
aI3
aI3
aI2
aI2
aI2
aI2
aI3
aI2
aI3
aI4
aI5
aI5
aI7
aI6
aI6
aI7
aI6
aI6
aI5
aI6
aI6
aI5
aI3
aI3
aI3
aI3
aI4
aI4
aI5
aI4
aI5
aI5
aI5
aI5
aI5
aI6
aI5
aI6
aI7
aI7
aI0
aI0
aI1
aI1
aI2
aI2
aI2
aI1
aI0
aI0
aI6
aI6
aI7
aI7
aI0
aI0
aI0
aI0
aI1
aI1
aI1
aI0
aI1
aI2
aa(lp168
I2
aI2
aI2
aI3
aI2
aI2
aI3
aI3
aI4
aI5
aI4
aI5
aI5
aI3
aI3
aI2
aI3
aI2
aI3
aI4
aI4
aI4
aI4
aI5
aI5
aI5
aI6
aI5
aI6
aI6
aI5
aI6
aI6
aI7
aI0
aI0
aI1
aI2
aI2
aI1
aI2
aI1
aI0
aI0
aI6
aI6
aI6
aI7
aI7
aI7
aI7
aI1
aI1
aI1
aI0
aI2
aa(lp169
I2
aI2
aI3
aI3
aI3
aI3
aI5
aI5
aI5
aI5
aI5
aI3
aI2
aI3
aI3
aI3
aI4
aI4
aI4
aI4
aI4
aI5
aI5
aI6
aI5
aI6
aI7
aI7
aI7
aI7
aI0
aI0
aI0
aI0
aI0
aI0
aI6
aI7
aI7
aI0
aI1
aI0
aI1
aI0
aI1
aI1
aI1
aa(lp170
I2
aI3
aI4
aI3
aI3
aI4
aI5
aI6
aI7
aI0
aI1
aa(lp171
I2
aI2
aI2
aI2
aI2
aI2
aI2
aI3
aI2
aI3
aI2
aI3
aI3
aI4
aI3
aI4
aI5
aI5
aI4
aI3
aI3
aI3
aI4
aI3
aI4
aI5
aI4
aI5
aI5
aI6
aI5
aI6
aI6
aI6
aI6
aI6
aI6
aI6
aI6
aI6
aI6
aI7
aI6
aI7
aI7
aI0
aI0
aI1
aI1
aI0
aI3
aI1
aI2
aI2
aI2
aI2
aI2
aI2
aI2
aI2
aI3
aI2
aI4
aI5
aI5
aI6
aI6
aI6
aI6
aI6
aI6
aI6
aI7
aI7
aa(lp172
I3
aI2
aI2
aI2
aI1
aI2
aI2
aI3
aI3
aI3
aI5
aI6
aI5
aI6
aI6
aI6
aI6
aI6
aI6
aI7
aI6
aI0
aI0
aI0
aI5
aI6
aI5
aI5
aI5
aI5
aI4
aI4
aI3
aI3
aI2
aI2
aI2
aI3
aI4
aI4
aI3
aI5
aI5
aI6
aI6
aI6
aI6
aI7
aI6
aI0
aI7
aI7
aI5
aI4
aI4
aI3
aI4
aI3
aI3
aI2
aI3
aI2
aI2
aI2
aI2
aI2
aI2
aI1
aI1
aI1
aI0
aI0
aI0
aI7
aI0
aI0
aI7
aI0
aI7
aI7
aI7
aI0
aI5
aa(lp173
I2
aI2
aI2
aI2
aI3
aI3
aI4
aI5
aI5
aI7
aI5
aI4
aI3
aI2
aI3
aI3
aI4
aI3
aI4
aI3
aI4
aI4
aI5
aI4
aI5
aI5
aI5
aI5
aI6
aI6
aI6
aI6
aI6
aI6
aI7
aI7
aI7
aI0
aI0
aI0
aI1
aI1
aI2
aI2
aI3
aI5
aI4
aI3
aI2
aI2
aI1
aI1
aI0
aI0
aI0
aI7
aI7
aI6
aI6
aI6
aI5
aI6
aI5
aI5
aI6
aI7
aI7
aI0
aI0
aI1
aI0
aI7
aI0
aI1
aI1
aI2
aI1
aI2
aI2
aI1
aI2
aa(lp174
I2
aI3
aI3
aI3
aI5
aI4
aI5
aI4
aI5
aI4
aI5
aI4
aI4
aI5
aI4
aI4
aI5
aI4
aI5
aI4
aI5
aI5
aI7
aI0
aI0
aI0
aI1
aI0
aI0
aI0
aI1
aI0
aI6
aI6
aI6
aI7
aI7
aI1
aI0
aI0
aI1
aI1
aI1
aI1
aI2
aI1
aI2
aa(lp175
I2
aI3
aI4
aI4
aI5
aI6
aI5
aI5
aI5
aI5
aI4
aI5
aI5
aI0
aa(lp176
I2
aI3
aI3
aI4
aI3
aI3
aI5
aI5
aI4
aI5
aI5
aI5
aI5
aI5
aI5
aI5
aI4
aI5
aI5
aI5
aI4
aI5
aI6
aI7
aI0
aI1
aI0
aI1
aI1
aI0
aI1
aI1
aI0
aI2
aa(lp177
I2
aI2
aI2
aI3
aI3
aI3
aI2
aI3
aI5
aI6
aI7
aI5
aI4
aI4
aI4
aI5
aI4
aI5
aI4
aI4
aI4
aI4
aI4
aI4
aI4
aI4
aI5
aI5
aI6
aI6
aI6
aI7
aI0
aI0
aI0
aI0
aI0
aI1
aI0
aI0
aI0
aI1
aI0
aI0
aI0
aI0
aI1
aI0
aI0
aI0
aI0
aa(lp178
I2
aI2
aI2
aI2
aI3
aI4
aI5
aI6
aI6
aI6
aI6
aI5
aI6
aI6
aI5
aI5
aI5
aI3
aI2
aI3
aI4
aI3
aI4
aI4
aI4
aI4
aI5
aI5
aI5
aI6
aI5
aI6
aI6
aI6
aI7
aI6
aI7
aI6
aI7
aI7
aI0
aI1
aI3
aI2
aI2
aI3
aI2
aI2
aI2
aI2
aI2
aI1
aI0
aI0
aI0
aI7
aI6
aI6
aI6
aI6
aI5
aI6
aI7
aI1
aI1
aI1
aI1
aI1
aI0
aI1
aI1
aI2
aI2
aI1
aI2
aI2
aa(lp179
I2
aI3
aI4
aI4
aI4
aI5
aI4
aI5
aI4
aI3
aI3
aI4
aI5
aI5
aI6
aI6
aI5
aI5
aI4
aI5
aI5
aI5
aI4
aI5
aI6
aI7
aI7
aI1
aI0
aI1
aI1
aI0
aI7
aI7
aI7
aI7
aI1
aI0
aI1
aI0
aI1
aI1
aI2
aI3
aI4
aI4
aI4
aI3
aI1
aI0
aI1
aI0
aI0
aI1
aI0
aI1
aa(lp180
I3
aI3
aI4
aI4
aI4
aI4
aI4
aI4
aI4
aI3
aI4
aI4
aI4
aI3
aI3
aI3
aI2
aI1
aI0
aI1
aI0
aI1
aI1
aI3
aI3
aI4
aI3
aI4
aI4
aI5
aI4
aI5
aI5
aI5
aI6
aI6
aI7
aI6
aI7
aI6
aI7
aI7
aI0
aI7
aI0
aI7
aI0
aI0
aI0
aI0
aI7
aI1
aI0
aI0
aI7
aI0
aI0
aI0
aa(lp181
I2
aI3
aI3
aI3
aI3
aI4
aI5
aI4
aI5
aI4
aI3
aI4
aI4
aI4
aI4
aI5
aI7
aI7
aI0
aI6
aI7
aI6
aI5
aI6
aI5
aI5
aI6
aI5
aI6
aI6
aI5
aI6
aI6
aI6
aI6
aI7
aI0
aI0
aI0
aI1
aI1
aI1
aI2
aI2
aI1
aI2
aI2
aI1
aI2
aI2
aI2
aI2
aI2
aI2
aI1
aI1
aI7
aI5
aI6
aI7
aI7
aI0
aI1
aI2
aI2
aa(lp182
I2
aI2
aI2
aI2
aI2
aI3
aI2
aI3
aI3
aI3
aI3
aI4
aI5
aI4
aI5
aI4
aI5
aI5
aI5
aI5
aI4
aI5
aI4
aI4
aI4
aI5
aI5
aI6
aI6
aI7
aI7
aI1
aI1
aI1
aI0
aI0
aI1
aI0
aI1
aI1
aI1
aI0
aI1
aI2
aI5
aa(lp183
I2
aI2
aI2
aI2
aI3
aI4
aI4
aI4
aI4
aI5
aI4
aI4
aI5
aI4
aI5
aI4
aI5
aI4
aI5
aI4
aI5
aI4
aI5
aI5
aI5
aI6
aI7
aI1
aI0
aI1
aI1
aI0
aI1
aI0
aI1
aI0
aI1
aI0
aI1
aI0
aI0
aI1
aI0
aI0
aI6
aI6
aI6
aI5
aI5
aI0
aa(lp184
I2
aI2
aI3
aI5
aI5
aI5
aI6
aI5
aI6
aI6
aI6
aI5
aI5
aI3
aI2
aI2
aI2
aI2
aI3
aI2
aI3
aI3
aI4
aI4
aI5
aI4
aI5
aI5
aI5
aI6
aI5
aI5
aI6
aI6
aI5
aI6
aI6
aI7
aI7
aI0
aI1
aI2
aI3
aI2
aI1
aI2
aI1
aI2
aI1
aI1
aI0
aI1
aI7
aI6
aI6
aI6
aI6
aI6
aI6
aI6
aI7
aI0
aI0
aI0
aI0
aI1
aI1
aI1
aI1
aI1
aI2
aI3
aI2
aI1
aa(lp185
I2
aI2
aI2
aI3
aI3
aI3
aI3
aI3
aI3
aI2
aI3
aI4
aI4
aI3
aI4
aI3
aI4
aI5
aI4
aI4
aI5
aI5
aI6
aI6
aI6
aI5
aI6
aI6
aI6
aI6
aI6
aI6
aI6
aI6
aI7
aI7
aI0
aI0
aI0
aI0
aI0
aI7
aI0
aI1
aI0
aI1
aI0
aI1
aI1
aI2
aI1
aI2
aI3
aI3
aI3
aI3
aI4
aI3
aI3
aI4
aI4
aI3
aI4
aI5
aI6
aI5
aI6
aI6
aI6
aI6
aI6
aI6
aI6
aI6
aI6
aa(lp186
I2
aI2
aI3
aI3
aI2
aI3
aI4
aI3
aI4
aI3
aI4
aI4
aI4
aI3
aI5
aI4
aI4
aI5
aI4
aI5
aI5
aI5
aI5
aI5
aI6
aI6
aI6
aI7
aI7
aI0
aI7
aI0
aI0
aI0
aI1
aI7
aI0
aI0
aI1
aI0
aI0
aI0
aI0
aI0
aI0
aI1
aI1
aa(lp187
I2
aI2
aI2
aI2
aI3
aI4
aI5
aI6
aI6
aI6
aI5
aI6
aI5
aI0
aa(lp188
I2
aI3
aI4
aI4
aI4
aI4
aI5
aI4
aI4
aI4
aI4
aI4
aI4
aI5
aI4
aI4
aI4
aI4
aI4
aI4
aI5
aI5
aI7
aI0
aI0
aI0
aI0
aI0
aI0
aI0
aI6
aI5
aI6
aI6
aI7
aI7
aI0
aI0
aI7
aI1
aI0
aI0
aI0
aI1
aI2
aI3
aI4
aI3
aI4
aI3
aI1
aI0
aI0
aI1
aI0
aI0
aI0
aI1
aa(lp189
I2
aI2
aI3
aI2
aI2
aI3
aI2
aI2
aI2
aI2
aI3
aI5
aI5
aI5
aI6
aI7
aI6
aI6
aI7
aI5
aI5
aI5
aI0
aa(lp190
I2
aI3
aI2
aI3
aI4
aI4
aI4
aI3
aI3
aI4
aI4
aI3
aI2
aI3
aI5
aI5
aI5
aI0
aa(lp191
I2
aI2
aI2
aI2
aI2
aI2
aI2
aI3
aI3
aI4
aI3
aI5
aI4
aI4
aI5
aI4
aI5
aI4
aI5
aI4
aI5
aI5
aI5
aI4
aI5
aI5
aI5
aa(lp192
I2
aI2
aI3
aI4
aI4
aI5
aI4
aI5
aI5
aI5
aI4
aI5
aI5
aI4
aI3
aI3
aI3
aI4
aI4
aI4
aI4
aI5
aI5
aI6
aI6
aI6
aI7
aI7
aI7
aI0
aI7
aI0
aI0
aI1
aI0
aI7
aI7
aI7
aI0
aI7
aI0
aI0
aI1
aI1
aI1
aI2
aI2
aI3
aI3
aI5
aI5
aI5
aI0
aI6
aa(lp193
I3
aI4
aI5
aI5
aI6
aI5
aI5
aI6
aI5
aI6
aI5
aI6
aI7
aI0
aI1
aI1
aI2
aI1
aI2
aI1
aI2
aI1
aI2
aa(lp194
I2
aI2
aI2
aI3
aI2
aI3
aI3
aI4
aI5
aI6
aI7
aI7
aI6
aI6
aI5
aI3
aI2
aI3
aI4
aI4
aI5
aI4
aI3
aI3
aI3
aI4
aI4
aI4
aI4
aI5
aI5
aI5
aI6
aI6
aI6
aI5
aI6
aI6
aI6
aI6
aI7
aI6
aI7
aI7
aI0
aI0
aI0
aI1
aI1
aI1
aI1
aI0
aI7
aI0
aI0
aI0
aI0
aI0
aI1
aI1
aI1
aI2
aI2
aI2
aa(lp195
I2
aI3
aI3
aI2
aI2
aI2
aI3
aI2
aI3
aI4
aI4
aI5
aI5
aI4
aI3
aI3
aI3
aI3
aI3
aI4
aI4
aI5
aI5
aI5
aI5
aI6
aI6
aI5
aI6
aI6
aI6
aI6
aI6
aI6
aI6
aI6
aI6
aI7
aI0
aI1
aI2
aI2
aI2
aI2
aI2
aI2
aI2
aI1
aI2
aI2
aI1
aI1
aI0
aI6
aI7
aI7
aI7
aI6
aI7
aI7
aI1
aI1
aI1
aI2
aa(lp196
I2
aI2
aI3
aI2
aI3
aI4
aI4
aI4
aI3
aI4
aI5
aI5
aI5
aI4
aI5
aI4
aI5
aI4
aI5
aI4
aI5
aI4
aI4
aI5
aI7
aI0
aI0
aI0
aI0
aI1
aI0
aI0
aI6
aI5
aI6
aI6
aI5
aI6
aI6
aI7
aI7
aI0
aI0
aI0
aI0
aI1
aI0
aI1
aI1
aI1
aI2
aI1
aI1
aI2
aI1
aI2
aa(lp197
I2
aI2
aI2
aI2
aI2
aI2
aI2
aI2
aI2
aI3
aI4
aI3
aI4
aI4
aI5
aI4
aI5
aI5
aI5
aI4
aI5
aI5
aI5
aI5
aI4
aI5
aI5
aI5
aI4
aI5
aI6
aI6
aI6
aI7
aI7
aI0
aI0
aI1
aI1
aI1
aI1
aI1
aI0
aI1
aI1
aI0
aI0
aI1
aI1
aI2
aI5
aI5
aa(lp198
I2
aI3
aI4
aI4
aI4
aI4
aI4
aI5
aI5
aI4
aI5
aI5
aI5
aI4
aI3
aI4
aI3
aI4
aI4
aI4
aI5
aI5
aI6
aI6
aI6
aI6
aI6
aI6
aI7
aI7
aI0
aI0
aI0
aI0
aI0
aI1
aI1
aI1
aI0
aI0
aI0
aI0
aI0
aI0
aI1
aI1
aI1
aI1
aI3
aI2
aI1
aI4
aa(lp199
I2
aI3
aI4
aI4
aI5
aI3
aI2
aI3
aI2
aI3
aI4
aI4
aI4
aI4
aI4
aI4
aI4
aI5
aI5
aI5
aI5
aI5
aI5
aI6
aI6
aI6
aI5
aI6
aI7
aI6
aI7
aI7
aI0
aI0
aI0
aI0
aI0
aI0
aI1
aI1
aI0
aI0
aI1
aI1
aI0
aI1
aI1
aI1
aI1
aa(lp200
I2
aI3
aI2
aI3
aI3
aI3
aI4
aI3
aI5
aI6
aI7
aI7
aI7
aI5
aI5
aI5
aI4
aI5
aI4
aI3
aI2
aI1
aI2
aI3
aI3
aI3
aI3
aI3
aI4
aI4
aI4
aI5
aI5
aI6
aI5
aI6
aI6
aI7
aI7
aI7
aI7
aI0
aI7
aI7
aI7
aI0
aI1
aI0
aI7
aI0
aI0
aI0
aI1
aI0
aI1
aI1
aI1
aI2
aa(lp201
I2
aI2
aI2
aI2
aI3
aI5
aI6
aI6
aI5
aI6
aI5
aI5
aI5
aI5
aI4
aI5
aI5
aI4
aI5
aI4
aI3
aI1
aI2
aI1
aI2
aI2
aI1
aI2
aI3
aI3
aI4
aI4
aI5
aI5
aI5
aI6
aI5
aI5
aI6
aI5
aI6
aI6
aI6
aI6
aI6
aI6
aI7
aI0
aI0
aI0
aI0
aI1
aI0
aI1
aI0
aI1
aI1
aI0
aI1
aI0
aI1
aI0
aI1
aI1
aI1
aI1
aI2
aa(lp202
I2
aI2
aI2
aI2
aI2
aI2
aI2
aI2
aI3
aI2
aI3
aI3
aI4
aI3
aI4
aI5
aI4
aI4
aI5
aI4
aI5
aI5
aI3
aI2
aI2
aI2
aI2
aI3
aI3
aI3
aI5
aI5
aI6
aI6
aI6
aI6
aI6
aI6
aI6
aI6
aI6
aI7
aI6
aI6
aI7
aI7
aI0
aI0
aI1
aI0
aI1
aI1
aI1
aI1
aI2
aI1
aI7
aI7
aI6
aI6
aI6
aI6
aI6
aI6
aI5
aI6
aI6
aI7
aI0
aI1
aI1
aI1
aa(lp203
I2
aI2
aI2
aI2
aI3
aI2
aI2
aI2
aI2
aI2
aI3
aI4
aI4
aI4
aI4
aI4
aI4
aI5
aI4
aI5
aI5
aI4
aI3
aI3
aI3
aI4
aI5
aI5
aI5
aI5
aI6
aI6
aI6
aI6
aI6
aI7
aI7
aI6
aI7
aI0
aI1
aI0
aI1
aI1
aI1
aI7
aI6
aI6
aI7
aI6
aI7
aI7
aI7
aI7
aI0
aI1
aI1
aI1
aI1
aI2
aI2
aa(lp204
I2
aI2
aI2
aI2
aI3
aI2
aI3
aI2
aI2
aI3
aI4
aI4
aI4
aI4
aI5
aI4
aI5
aI4
aI4
aI4
aI5
aI4
aI4
aI4
aI4
aI5
aI4
aI5
aI6
aI7
aI0
aI1
aI0
aI0
aI0
aI0
aI0
aI1
aI0
aI6
aI6
aI5
aI6
aI6
aI6
aI6
aI7
aI7
aI0
aI0
aI1
aI0
aI0
aI0
aI1
aI0
aI1
aa(lp205
I2
aI3
aI5
aI5
aI4
aI5
aI4
aI5
aI3
aI2
aI2
aI1
aI1
aI1
aI1
aI1
aI3
aI4
aI5
aI4
aI5
aI4
aI3
aI3
aI5
aI6
aI6
aI5
aI0
aa(lp206
I2
aI2
aI2
aI2
aI2
aI3
aI3
aI3
aI4
aI4
aI4
aI4
aI4
aI5
aI5
aI4
aI3
aI4
aI4
aI4
aI5
aI4
aI5
aI5
aI5
aI5
aI6
aI6
aI6
aI6
aI7
aI7
aI5
aI7
aI7
aI0
aI0
aI1
aI2
aI2
aI3
aI2
aI2
aI2
aI2
aI1
aI1
aI0
aI6
aI6
aI7
aI0
aI7
aI0
aI1
aI1
aI0
aI1
aI0
aI2
aI3
aI4
aI5
aI6
aa(lp207
I2
aI2
aI3
aI3
aI3
aI4
aI4
aI4
aI5
aI5
aI5
aI3
aI2
aI3
aI3
aI3
aI3
aI3
aI5
aI6
aI7
aI7
aI6
aI7
aI6
aI7
aI6
aI6
aI5
aI6
aI6
aI5
aI6
aI5
aI6
aI6
aI6
aI6
aI7
aI0
aI0
aI0
aI1
aI2
aI1
aI2
aI2
aI1
aI0
aI2
aI2
aI1
aI2
aI1
aI1
aI2
aI4
aI5
aI5
aI5
aI6
aI6
aI6
aa(lp208
I2
aI2
aI2
aI2
aI2
aI2
aI2
aI2
aI3
aI2
aI1
aI2
aI2
aI2
aI3
aI3
aI4
aI4
aI5
aI6
aI5
aI6
aI6
aI6
aI5
aI6
aI5
aI0
aI5
aI0
aI5
aI0
aI6
aI6
aa(lp209
I2
aI2
aI2
aI2
aI2
aI3
aI3
aI5
aI5
aI6
aI6
aI6
aI6
aI6
aI6
aI5
aI4
aI3
aI2
aI2
aI2
aI3
aI3
aI3
aI4
aI3
aI4
aI4
aI5
aI4
aI4
aI5
aI5
aI5
aI5
aI6
aI6
aI6
aI6
aI6
aI6
aI7
aI6
aI7
aI0
aI1
aI2
aI2
aI2
aI2
aI2
aI2
aI2
aI2
aI1
aI1
aI0
aI0
aI7
aI7
aI6
aI6
aI6
aI5
aI5
aI5
aI7
aI0
aI0
aI0
aI1
aI0
aI0
aI0
aI0
aI1
aI0
aI1
aI1
aI2
aa(lp210
I2
aI2
aI2
aI2
aI2
aI2
aI2
aI2
aI2
aI2
aI2
aI2
aI2
aI2
aI3
aI3
aI4
aI5
aI6
aI5
aI5
aI5
aI5
aI5
aI6
aI5
aI5
aI5
aI5
aI5
aI5
aI5
aI5
aI4
aI5
aI5
aa(lp211
I2
aI2
aI3
aI4
aI4
aI5
aI5
aI5
aI5
aI5
aI5
aI6
aI5
aI3
aI2
aI2
aI2
aI2
aI2
aI3
aI2
aI3
aI4
aI4
aI5
aI5
aI5
aI5
aI5
aI6
aI5
aI6
aI6
aI6
aI6
aI6
aI6
aI6
aI7
aI6
aI7
aI0
aI7
aI0
aI0
aI1
aI1
aI0
aI1
aI1
aI1
aI1
aI1
aI1
aI1
aI1
aI1
aI2
aI1
aI0
aa(lp212
I3
aI3
aI5
aI4
aI5
aI4
aI5
aI5
aI5
aI5
aI5
aI5
aI5
aI5
aI6
aI5
aI5
aI5
aI5
aI5
aI5
aI5
aI6
aI6
aI7
aI1
aI0
aI1
aI2
aI1
aI1
aI1
aI1
aI1
aI0
aI2
aa(lp213
I2
aI3
aI4
aI3
aI2
aI2
aI2
aI1
aI2
aI2
aI3
aI4
aI4
aI4
aI4
aI4
aI5
aI4
aI4
aI5
aI4
aI4
aI5
aI4
aI4
aI5
aI4
aI5
aI6
aI7
aI1
aI0
aI0
aI1
aI0
aI0
aI1
aI0
aI0
aI1
aI0
aI0
aI1
aI0
aI6
aI6
aI5
aI6
aI6
aI6
aI6
aI7
aI7
aI0
aI0
aI0
aa(lp214
I2
aI2
aI3
aI3
aI4
aI4
aI4
aI3
aI5
aI4
aI4
aI5
aI4
aI4
aI5
aI4
aI4
aI5
aI4
aI5
aI4
aI5
aI5
aI6
aI6
aI7
aI7
aI0
aI0
aI0
aI1
aI1
aI0
aI1
aI0
aI0
aI1
aI0
aI0
aI0
aI0
aI0
aI0
aI0
aI1
aa(lp215
I2
aI3
aI4
aI4
aI5
aI4
aI5
aI5
aI4
aI3
aI2
aI2
aI2
aI3
aI2
aI3
aI3
aI4
aI4
aI4
aI4
aI4
aI4
aI4
aI5
aI5
aI6
aI6
aI6
aI6
aI6
aI7
aI6
aI7
aI7
aI6
aI7
aI7
aI0
aI0
aI0
aI1
aI0
aI0
aI1
aI0
aI1
aI0
aI0
aI1
aI1
aI1
aI0
aa(lp216
I2
aI2
aI2
aI3
aI5
aI3
aI3
aI4
aI4
aI4
aI5
aI5
aI5
aI4
aI3
aI4
aI3
aI4
aI4
aI4
aI4
aI5
aI5
aI5
aI6
aI6
aI7
aI6
aI7
aI7
aI0
aI7
aI0
aI0
aI0
aI0
aI0
aI1
aI0
aI0
aI0
aI0
aI0
aI1
aI0
aI1
aI2
aI1
aa(lp217
I3
aI3
aI3
aI4
aI4
aI3
aI3
aI4
aI3
aI3
aI4
aI4
aI3
aI4
aI3
aI4
aI4
aI4
aI5
aI5
aI5
aI6
aI7
aI7
aI0
aI1
aI0
aI0
aI7
aI0
aI7
aI7
aI0
aI0
aI7
aI0
aI7
aI0
aI0
aI0
aI7
aI1
aa(lp218
I2
aI2
aI2
aI3
aI2
aI3
aI4
aI4
aI4
aI5
aI4
aI3
aI4
aI3
aI4
aI4
aI4
aI4
aI5
aI5
aI4
aI5
aI6
aI5
aI5
aI5
aI6
aI6
aI6
aI7
aI0
aI0
aI0
aI1
aI3
aI3
aI1
aI2
aI1
aI0
aI1
aI1
aI0
aI0
aI0
aI6
aI6
aI6
aI5
aI7
aI0
aI0
aI1
aI2
aI1
aI1
aI0
aI0
aI6
aI6
aI6
aI6
aI7
aI1
aa.