(lp0
(lp1
I2
aI3
aI4
aI4
aI4
aI4
aI4
aI4
aI4
aI4
aI4
aI5
aI4
aI3
aI4
aI4
aI4
aI4
aI4
aI4
aI6
aI6
aI0
aI0
aI0
aI0
aI7
aI0
aI0
aI0
aI0
aI0
aI0
aI0
aI0
aI1
aI7
aI1
aI0
aI0
aa(lp2
I2
aI2
aI2
aI3
aI3
aI4
aI5
aI4
aI4
aI4
aI4
aI3
aI2
aI4
aI3
aI4
aI4
aI4
aI4
aI4
aI4
aI5
aI6
aI5
aI6
aI6
aI6
aI6
aI6
aI7
aI6
aI7
aI0
aI1
aI2
aI3
aI2
aI3
aI2
aI1
aI2
aI1
aI0
aI0
aI7
aI7
aI7
aI6
aI6
aI6
aI5
aI6
aI6
aI7
aI0
aI1
aI2
aI2
aI1
aI1
aI1
aI1
aI0
aI7
aI6
aI6
aI0
aI5
aI0
aI6
aI6
aI5
aI3
aI2
aa(lp3
I2
aI2
aI2
aI2
aI2
aI3
aI2
aI3
aI4
aI4
aI4
aI4
aI4
aI4
aI5
aI5
aI5
aI5
aI3
aI2
aI2
aI2
aI2
aI2
aI2
aI4
aI6
aI6
aI5
aI6
aI6
aI6
aI5
aI6
aI6
aI6
aI6
aI5
aI6
aI7
aI0
aI1
aI2
aI1
aI1
aI1
aI1
aI1
aI1
aI1
aI0
aI1
aI0
aI7
aI7
aI6
aI6
aI6
aI6
aI6
aI6
aI0
aI5
aI0
aI5
aI0
aI6
aI6
aI5
aI3
aI2
aa(lp4
I2
aI2
aI2
aI3
aI4
aI4
aI5
aI5
aI5
aI5
aI5
aI5
aI4
aI4
aI3
aI4
aI4
aI4
aI4
aI5
aI4
aI6
aI5
aI6
aI6
aI6
aI6
aI7
aI0
aI0
aI0
aI1
aI0
aI1
aI0
aI1
aI1
aI1
aI7
aI7
aI0
aI0
aI0
aI1
aI2
aI1
aI2
aI2
aa(lp5
I3
aI1
aI2
aI2
aI2
aI2
aI2
aI2
aI2
aI3
aI3
aI2
aI3
aI4
aI4
aI3
aI4
aI4
aI4
aI4
aI4
aI4
aI4
aI4
aI4
aI5
aI6
aI5
aI6
aI6
aI6
aI6
aI6
aI6
aI6
aI6
aI6
aI6
aI6
aI6
aI6
aI7
aI7
aI0
aI7
aI0
aI0
aI0
aI0
aI1
aI0
aI0
aI0
aI1
aI0
aI1
aI1
aa(lp6
I2
aI2
aI4
aI4
aI5
aI4
aI5
aI4
aI5
aI5
aI5
aI4
aI5
aI4
aI3
aI2
aI1
aI2
aI1
aI1
aI2
aI2
aI2
aI2
aI2
aI3
aI4
aI4
aI5
aI4
aI5
aI6
aI5
aI5
aI6
aI6
aI5
aI6
aI6
aI6
aI6
aI6
aI6
aI6
aI0
aI7
aI0
aI0
aI0
aI0
aI1
aI0
aI0
aI1
aI0
aI1
aI1
aI0
aI2
aI1
aI0
aI0
aI1
aa(lp7
I2
aI2
aI2
aI2
aI2
aI3
aI4
aI3
aI4
aI4
aI5
aI5
aI4
aI4
aI5
aI5
aI4
aI5
aI4
aI5
aI5
aI5
aI4
aI5
aI6
aI6
aI0
aI1
aI1
aI1
aI0
aI1
aI0
aI1
aI7
aI6
aI7
aI7
aI0
aI7
aI0
aI0
aI1
aI1
aI1
aa(lp8
I2
aI2
aI2
aI2
aI2
aI2
aI3
aI4
aI4
aI4
aI6
aI7
aI5
aI6
aI6
aI6
aI5
aI6
aI6
aI6
aI6
aI0
aI7
aI0
aI1
aI2
aI2
aI2
aa(lp9
I2
aI2
aI3
aI4
aI5
aI4
aI5
aI4
aI4
aI4
aI4
aI4
aI5
aI5
aI4
aI4
aI5
aI4
aI5
aI5
aI5
aI6
aI6
aI6
aI6
aI0
aI7
aI0
aI1
aI2
aI2
aI3
aI2
aI1
aI1
aI0
aI1
aI0
aI1
aI0
aI1
aI0
aI7
aI7
aI5
aI5
aI5
aI5
aI6
aI5
aI6
aI5
aI6
aI6
aI0
aI0
aI0
aI1
aI1
aI1
aI0
aI2
aI1
aI1
aI2
aI1
aI2
aI2
aI2
aa(lp10
I2
aI2
aI2
aI2
aI3
aI2
aI3
aI3
aI4
aI4
aI4
aI4
aI4
aI4
aI3
aI4
aI4
aI4
aI4
aI4
aI5
aI4
aI4
aI4
aI6
aI0
aI0
aI0
aI0
aI0
aI0
aI0
aI0
aI0
aI7
aI7
aI5
aI6
aI6
aI5
aI6
aI6
aI7
aI6
aI7
aI0
aI0
aI0
aI0
aI1
aI0
aI1
aI2
aa(lp11
I2
aI2
aI2
aI2
aI3
aI2
aI4
aI6
aI6
aI7
aI5
aI4
aI4
aI4
aI4
aI4
aI3
aI3
aI2
aI2
aI2
aI2
aI3
aI2
aI3
aI3
aI4
aI4
aI4
aI5
aI5
aI5
aI6
aI0
aI1
aI1
aI0
aI0
aI0
aI7
aI6
aI7
aI6
aI6
aI6
aI6
aI5
aI6
aI0
aI0
aI0
aI0
aI0
aI0
aI0
aI0
aI7
aI0
aa(lp12
I2
aI2
aI4
aI4
aI4
aI4
aI4
aI4
aI4
aI5
aI4
aI3
aI4
aI5
aI4
aI4
aI4
aI4
aI3
aI4
aI4
aI6
aI0
aI0
aI7
aI0
aI0
aI0
aI0
aI7
aI7
aI6
aI7
aI6
aI6
aI6
aI0
aI1
aI1
aI1
aI1
aI1
aI0
aI1
aa(lp13
I2
aI2
aI4
aI5
aI4
aI6
aI6
aI5
aI6
aI6
aI6
aI6
aI5
aI6
aI6
aI5
aI3
aI3
aI2
aI2
aI3
aI2
aI3
aI4
aI3
aI4
aI5
aI4
aI5
aI5
aI5
aI6
aI5
aI6
aI6
aI6
aI6
aI6
aI6
aI6
aI0
aI0
aI0
aI1
aI3
aI2
aI2
aI2
aI2
aI2
aI2
aI1
aI1
aI1
aI0
aI7
aI7
aI6
aI6
aI6
aI7
aI6
aI6
aI6
aI0
aI0
aI1
aI1
aI1
aI1
aI0
aI2
aI2
aI2
aI1
aI2
aI3
aI1
aI2
aa(lp14
I2
aI2
aI4
aI4
aI4
aI4
aI5
aI4
aI5
aI5
aI4
aI4
aI3
aI2
aI2
aI2
aI2
aI4
aI5
aI6
aI6
aI6
aI6
aI6
aI5
aI5
aI4
aI4
aI5
aI4
aI6
aI6
aI6
aI0
aI1
aI0
aI0
aI1
aI7
aI6
aI6
aI7
aI6
aI6
aI6
aI7
aI1
aI0
aI0
aI1
aI0
aI0
aI1
aI2
aI2
aI4
aI4
aI5
aI4
aI4
aI3
aI2
aI2
aI2
aI2
aI1
aI1
aI0
aI0
aI1
aI0
aI0
aI1
aI1
aa(lp15
I2
aI2
aI2
aI2
aI2
aI2
aI2
aI2
aI2
aI2
aI2
aI2
aI2
aI2
aI2
aI2
aI3
aI2
aI3
aI4
aI4
aI4
aI4
aI4
aI5
aI5
aI4
aI5
aI5
aI4
aI6
aI6
aI0
aI1
aI1
aI0
aI1
aI0
aI1
aI0
aI1
aI7
aI7
aI6
aI6
aI7
aI6
aI6
aI6
aI6
aI6
aI6
aI6
aI6
aI6
aI6
aI6
aI6
aI6
aa(lp16
I2
aI3
aI1
aI2
aI3
aI3
aI1
aI2
aI2
aI2
aI1
aI2
aI2
aI4
aI4
aI4
aI5
aI6
aI7
aI5
aI6
aI6
aI6
aI6
aI5
aI4
aI3
aI4
aI4
aI5
aI4
aI4
aI5
aI5
aI5
aI6
aI6
aI6
aI6
aI6
aI7
aI7
aI0
aI1
aI3
aI2
aI3
aI2
aI2
aI1
aI2
aI1
aI0
aI0
aI0
aI0
aI0
aI7
aI6
aI6
aI6
aI0
aI0
aI1
aI0
aa(lp17
I2
aI2
aI2
aI3
aI3
aI2
aI4
aI4
aI4
aI4
aI3
aI3
aI4
aI4
aI4
aI4
aI4
aI5
aI3
aI2
aI2
aI2
aI3
aI4
aI6
aI6
aI6
aI6
aI6
aI6
aI6
aI6
aI5
aI5
aI6
aI6
aI6
aI6
aI7
aI6
aI7
aI7
aI0
aI0
aI1
aI2
aI2
aI2
aI2
aI2
aI2
aI2
aI2
aI1
aI1
aI0
aI0
aI0
aI0
aI7
aI0
aI7
aI0
aI7
aI5
aI5
aI5
aI7
aI7
aI1
aI1
aa(lp18
I2
aI2
aI3
aI4
aI4
aI4
aI4
aI4
aI4
aI5
aI4
aI4
aI4
aI5
aI4
aI5
aI4
aI6
aI5
aI5
aI5
aI6
aI5
aI6
aI6
aI6
aI6
aI0
aI0
aI0
aI0
aI0
aI0
aI1
aI0
aI2
aI1
aI0
aI1
aI1
aI1
aI0
aI1
aI1
aI0
aI1
aa(lp19
I2
aI2
aI2
aI2
aI2
aI2
aI2
aI2
aI4
aI4
aI5
aI4
aI5
aI5
aI3
aI2
aI2
aI3
aI2
aI2
aI3
aI3
aI4
aI4
aI4
aI5
aI5
aI4
aI5
aI6
aI5
aI6
aI5
aI6
aI6
aI6
aI0
aI1
aI2
aI2
aI1
aI1
aI1
aI1
aI1
aI0
aI7
aI6
aI7
aI6
aI6
aI6
aI6
aI6
aI5
aI6
aI6
aI5
aI6
aI5
aI6
aI0
aI0
aI2
aI1
aI1
aI1
aI1
aI2
aI1
aI1
aI1
aI7
aI6
aI6
aI6
aI6
aI5
aI6
aI5
aI6
aI6
aI6
aI0
aI1
aI2
aI2
aI1
aI2
aa(lp20
I2
aI2
aI2
aI2
aI4
aI3
aI4
aI3
aI4
aI5
aI4
aI5
aI5
aI6
aI7
aI5
aI5
aI5
aI4
aI3
aI2
aI1
aI2
aI2
aI2
aI3
aI1
aI2
aI3
aI2
aI3
aI3
aI3
aI4
aI4
aI5
aI6
aI0
aI7
aI7
aI6
aI7
aI6
aI6
aI6
aI6
aI6
aI6
aI5
aI6
aI5
aI6
aI5
aI4
aI6
aI7
aI0
aI0
aI1
aI0
aI0
aI0
aI1
aI0
aI1
aI1
aI0
aI2
aI1
aI2
aI2
aI2
aI1
aI0
aI7
aI6
aI6
aI6
aI6
aI6
aI0
aI1
aI2
aa(lp21
I2
aI2
aI3
aI2
aI3
aI3
aI3
aI4
aI4
aI4
aI4
aI6
aI0
aI0
aI0
aI7
aI7
aI7
aI6
aI7
aI6
aa(lp22
I2
aI2
aI2
aI2
aI2
aI4
aI4
aI4
aI4
aI5
aI4
aI5
aI4
aI4
aI5
aI4
aI5
aI4
aI4
aI4
aI4
aI4
aI5
aI4
aI6
aI6
aI0
aI0
aI0
aI1
aI0
aI0
aI0
aI1
aI0
aI1
aI0
aI0
aI1
aI0
aI0
aI1
aI7
aI6
aI6
aI5
aI5
aI4
aI7
aI6
aI0
aI0
aI2
aI1
aI2
aa(lp23
I2
aI2
aI2
aI2
aI2
aI4
aI4
aI3
aI2
aI4
aI4
aI4
aI4
aI5
aI3
aI4
aI5
aI4
aI4
aI4
aI4
aI4
aI4
aI4
aI5
aI6
aI7
aI0
aI1
aI0
aI7
aI0
aI1
aI7
aI0
aI7
aI5
aI6
aI6
aI6
aI7
aI0
aI7
aI0
aI0
aI1
aI1
aI1
aI0
aa(lp24
I2
aI2
aI3
aI3
aI4
aI4
aI4
aI4
aI5
aI0
aI0
aI0
aI7
aI7
aI6
aI5
aI5
aI6
aI5
aI6
aI0
aI0
aI1
aI0
aI2
aI2
aI2
aa(lp25
I2
aI2
aI2
aI2
aI3
aI4
aI4
aI4
aI4
aI4
aI5
aI4
aI5
aI4
aI5
aI5
aI4
aI4
aI4
aI3
aI4
aI4
aI4
aI6
aI7
aI0
aI7
aI6
aI5
aI6
aI5
aI5
aI6
aI6
aI6
aI6
aI6
aI6
aI6
aI0
aI0
aI1
aI1
aI1
aI1
aI1
aI2
aI2
aI1
aI2
aI2
aI2
aI2
aI1
aI0
aI1
aI1
aI0
aI0
aI0
aI1
aI7
aI6
aI5
aI6
aI5
aI5
aI6
aI6
aI6
aI0
aI1
aI1
aI2
aI1
aI2
aa(lp26
I3
aI2
aI2
aI2
aI2
aI2
aI1
aI2
aI2
aI2
aI2
aI2
aI4
aI4
aI4
aI4
aI3
aI4
aI4
aI4
aI4
aI4
aI4
aI4
aI4
aI4
aI4
aI4
aI4
aI4
aI5
aI6
aI6
aI7
aI0
aI0
aI0
aI7
aI6
aI6
aI6
aI7
aI6
aI6
aI0
aI1
aI2
aI2
aI2
aI2
aI2
aI2
aI1
aI0
aI0
aI0
aI0
aI0
aI7
aI7
aI6
aI6
aI5
aI6
aI7
aI6
aI6
aI6
aI7
aI0
aa(lp27
I3
aI4
aI5
aI5
aI4
aI4
aI4
aI4
aI3
aI2
aI3
aI2
aI2
aI1
aI0
aI0
aI1
aI0
aI0
aI1
aI0
aI1
aI0
aI2
aI4
aI4
aI4
aI5
aI4
aI4
aI5
aI4
aI4
aI4
aI5
aI4
aI4
aI4
aI4
aI4
aI4
aI4
aI4
aI7
aI0
aI7
aI0
aI0
aI0
aI0
aI7
aI6
aI6
aI6
aI7
aI6
aI0
aI7
aI0
aI0
aI0
aI1
aI0
aI0
aI1
aa(lp28
I2
aI3
aI3
aI4
aI3
aI4
aI4
aI4
aI3
aI4
aI4
aI5
aI3
aI3
aI3
aI2
aI3
aI3
aI2
aI2
aa(lp29
I2
aI2
aI2
aI3
aI4
aI4
aI4
aI4
aI5
aI4
aI5
aI5
aI4
aI4
aI4
aI4
aI4
aI4
aI5
aI5
aI5
aI6
aI6
aI0
aI1
aI1
aI1
aI0
aI0
aI7
aI5
aI6
aI6
aI6
aI0
aI0
aI2
aI1
aI2
aI2
aI1
aI1
aI0
aI1
aI1
aI0
aI7
aI6
aI5
aI6
aI5
aI6
aI6
aI0
aI1
aI2
aI1
aI2
aa(lp30
I2
aI2
aI4
aI4
aI3
aI2
aI2
aI2
aI1
aI2
aI2
aI3
aI2
aI2
aI2
aI3
aI4
aI5
aI5
aI6
aI5
aI3
aI3
aI3
aI3
aI4
aI3
aI4
aI5
aI4
aI5
aI6
aI6
aI5
aI6
aI6
aI6
aI6
aI7
aI0
aI0
aI0
aI0
aI3
aI4
aI3
aI2
aI2
aI2
aI1
aI2
aI1
aI7
aI0
aI7
aI7
aI6
aI6
aI7
aI6
aI6
aI0
aI0
aI2
aI1
aI2
aI2
aI1
aI7
aI6
aI6
aI6
aI6
aI6
aI6
aI6
aI7
aI6
aI0
aI0
aI0
aa(lp31
I3
aI1
aI2
aI2
aI2
aI2
aI2
aI2
aI2
aI4
aI4
aI5
aI5
aI4
aI4
aI3
aI1
aI2
aI2
aI5
aI5
aI6
aI5
aI6
aI6
aI5
aI5
aI5
aI4
aI5
aI4
aI3
aI4
aI3
aI3
aI6
aI6
aI6
aI7
aI0
aI7
aI0
aI0
aI1
aI0
aI0
aI0
aI7
aI6
aI0
aI0
aI2
aI2
aI2
aI1
aI1
aI1
aI1
aI7
aI6
aI6
aI6
aI6
aI6
aI0
aa(lp32
I2
aI2
aI2
aI2
aI2
aI3
aI4
aI4
aI4
aI5
aI4
aI5
aI5
aI5
aI5
aI5
aI5
aI4
aI4
aI4
aI4
aI3
aI4
aI4
aI6
aI6
aI6
aI7
aI0
aI7
aI0
aI0
aI0
aI1
aI1
aI0
aI0
aI0
aI0
aI0
aI0
aI0
aI0
aI1
aI1
aa(lp33
I2
aI2
aI4
aI4
aI5
aI5
aI4
aI4
aI3
aI1
aI2
aI2
aI1
aI1
aI2
aI1
aI0
aI2
aI2
aI4
aI4
aI4
aI5
aI4
aI5
aI5
aI4
aI5
aI4
aI5
aI5
aI4
aI5
aI4
aI5
aI4
aI6
aI6
aI7
aI0
aI1
aI1
aI0
aI1
aI0
aI1
aI1
aI7
aI6
aI6
aI5
aI6
aI7
aI6
aI0
aI7
aI1
aI0
aI1
aI0
aI1
aI0
aa(lp34
I2
aI2
aI4
aI4
aI4
aI3
aI2
aI1
aI1
aI1
aI3
aI5
aI4
aI5
aI5
aI5
aI4
aI5
aI5
aI5
aI4
aI5
aI5
aI4
aI5
aI5
aI5
aI4
aI6
aI0
aI0
aI0
aI1
aI1
aI0
aI1
aI1
aI0
aI1
aI1
aI7
aI6
aI5
aI6
aI6
aI6
aI6
aI6
aI6
aI6
aI0
aI0
aI0
aI2
aI1
aI2
aI1
aI2
aI1
aI2
aI1
aa(lp35
I2
aI2
aI2
aI2
aI2
aI3
aI3
aI4
aI5
aI5
aI4
aI3
aI2
aI2
aI2
aI3
aI3
aI3
aI3
aI4
aI4
aI3
aI5
aI4
aI4
aI5
aI6
aI5
aI6
aI6
aI0
aI1
aI2
aI1
aI1
aI0
aI0
aI0
aI7
aI7
aI7
aI6
aI7
aI6
aI6
aI6
aI6
aI6
aI0
aI0
aI1
aI1
aI1
aI0
aI7
aI6
aI6
aI5
aI5
aI6
aI0
aI0
aa(lp36
I2
aI2
aI2
aI2
aI2
aI2
aI2
aI4
aI4
aI4
aI5
aI4
aI5
aI5
aI5
aI5
aI0
aI0
aI1
aI1
aI1
aI0
aI1
aI7
aI6
aI6
aI6
aI6
aI6
aI5
aI0
aI5
aI0
aI6
aI5
aI3
aI6
aI6
aI0
aa(lp37
I2
aI4
aI4
aI4
aI5
aI4
aI4
aI4
aI4
aI4
aI5
aI4
aI3
aI1
aI1
aI1
aI2
aI2
aI3
aI4
aI4
aI4
aI4
aI5
aI4
aI5
aI5
aI5
aI6
aI6
aI6
aI6
aI7
aI0
aI7
aI0
aI0
aI1
aI0
aI0
aI0
aI0
aI1
aI0
aI0
aI0
aI1
aI0
aI0
aI0
aa(lp38
I3
aI5
aI5
aI6
aI6
aI0
aI1
aI2
aa(lp39
I2
aI2
aI2
aI2
aI3
aI2
aI3
aI4
aI4
aI4
aI4
aI5
aI6
aI5
aI6
aI6
aI6
aI6
aI6
aI6
aI5
aI4
aI5
aI4
aI4
aI5
aI6
aI5
aI6
aI6
aI6
aI7
aI7
aI0
aI0
aI0
aI0
aI0
aI1
aI1
aI2
aI2
aI2
aI2
aI2
aI1
aI0
aI0
aI1
aI0
aI3
aI1
aa(lp40
I2
aI4
aI4
aI5
aI4
aI5
aI4
aI5
aI5
aI5
aI5
aI4
aI5
aI5
aI4
aI6
aI5
aI4
aI5
aI4
aI5
aI6
aI6
aI0
aI1
aI0
aI1
aI1
aI0
aI1
aI1
aI1
aI1
aI0
aI1
aI1
aI1
aI0
aI1
aI0
aI1
aa(lp41
I2
aI2
aI4
aI4
aI4
aI4
aI4
aI4
aI5
aI4
aI4
aI5
aI4
aI5
aI4
aI4
aI4
aI5
aI4
aI4
aI5
aI6
aI6
aI7
aI0
aI0
aI1
aI0
aI0
aI1
aI0
aI0
aI1
aI0
aI1
aI0
aI0
aI1
aI0
aI0
aI1
aa(lp42
I2
aI4
aI3
aI1
aI2
aI4
aI4
aI6
aI5
aI3
aI4
aI4
aI4
aI4
aI4
aI4
aI4
aI5
aI4
aI4
aI4
aI4
aI4
aI4
aI6
aI6
aI7
aI0
aI0
aI7
aI6
aI6
aI7
aI7
aI7
aI0
aI0
aI0
aI0
aI0
aI1
aI0
aI1
aI2
aI2
aI2
aI1
aI1
aI7
aa(lp43
I2
aI2
aI2
aI2
aI2
aI2
aI3
aI2
aI2
aI3
aI4
aI4
aI4
aI5
aI5
aI4
aI5
aI3
aI3
aI2
aI4
aI4
aI4
aI4
aI5
aI6
aI5
aI5
aI5
aI6
aI6
aI6
aI6
aI7
aI0
aI0
aI1
aI2
aI3
aI1
aI1
aI1
aI0
aI7
aI6
aI6
aI7
aI7
aI0
aI1
aI2
aI1
aI1
aI1
aI7
aI6
aI6
aI6
aI6
aI6
aI6
aI6
aI0
aI0
aI2
aa(lp44
I2
aI2
aI2
aI3
aI4
aI7
aI6
aI5
aI5
aI5
aI4
aI4
aI5
aI4
aI4
aI3
aI1
aI2
aI1
aI1
aI2
aI1
aI1
aI0
aI1
aI2
aI2
aI2
aI3
aI5
aI5
aI5
aI6
aI5
aI6
aI5
aI6
aI5
aI5
aI6
aI5
aI4
aI4
aI4
aI4
aI4
aI4
aI5
aI6
aI6
aI6
aI6
aI6
aI7
aI0
aI0
aI1
aI1
aI1
aI1
aI0
aI0
aI0
aI0
aI0
aI1
aI0
aI0
aI0
aI1
aI1
aa(lp45
I2
aI4
aI5
aI0
aI5
aI3
aI5
aI0
aI5
aI3
aI5
aI5
aI5
aI4
aI5
aI6
aI5
aI5
aI5
aI5
aI5
aI5
aI5
aI5
aI4
aI6
aI0
aI0
aI1
aI1
aI1
aI1
aI1
aI7
aI0
aI2
aI2
aI2
aI1
aI1
aI1
aI1
aI1
aa(lp46
I2
aI2
aI2
aI2
aI2
aI2
aI3
aI2
aI2
aI3
aI3
aI4
aI5
aI4
aI4
aI5
aI5
aI4
aI5
aI5
aI4
aI5
aI5
aI5
aI5
aI4
aI5
aI6
aI6
aI6
aI0
aI0
aI1
aI0
aI1
aI1
aI1
aI1
aI1
aI1
aI0
aI1
aI1
aI1
aI0
aI7
aI6
aI6
aI7
aI5
aI5
aI5
aI5
aI6
aI7
aI0
aI0
aI1
aI0
aa(lp47
I2
aI2
aI2
aI3
aI2
aI4
aI3
aI5
aI4
aI4
aI5
aI4
aI5
aI4
aI5
aI4
aI3
aI3
aI3
aI5
aI4
aI5
aI5
aI6
aI6
aI6
aI7
aI0
aI0
aI0
aI0
aI0
aI7
aI6
aI7
aI7
aI0
aI7
aI0
aI1
aI1
aI0
aI2
aI2
aI1
aI0
aI1
aa(lp48
I2
aI2
aI2
aI2
aI2
aI2
aI2
aI3
aI3
aI4
aI4
aI5
aI4
aI4
aI5
aI5
aI5
aI4
aI4
aI4
aI4
aI4
aI3
aI3
aI2
aI1
aI2
aI1
aI2
aI2
aI1
aI4
aI5
aI4
aI6
aI5
aI5
aI6
aI6
aI6
aI6
aI6
aI6
aI7
aI7
aI0
aI7
aI0
aI0
aI1
aI0
aI0
aI0
aI1
aI1
aI1
aI0
aI1
aI0
aI7
aI6
aI6
aI6
aI5
aI6
aI7
aI0
aa(lp49
I2
aI2
aI2
aI2
aI4
aI4
aI4
aI4
aI4
aI4
aI5
aI4
aI5
aI4
aI5
aI4
aI5
aI4
aI5
aI4
aI5
aI4
aI4
aI6
aI0
aI0
aI0
aI1
aI0
aI1
aI0
aI1
aI7
aI1
aI1
aI7
aI6
aI6
aI0
aI7
aI0
aI1
aI0
aI1
aa(lp50
I2
aI2
aI2
aI2
aI4
aI4
aI4
aI6
aI6
aI6
aI5
aI6
aI5
aI5
aI5
aI6
aI5
aI5
aI4
aI3
aI2
aI2
aI3
aI3
aI3
aI3
aI4
aI4
aI5
aI6
aI5
aI6
aI6
aI6
aI6
aI6
aI7
aI7
aI7
aI0
aI7
aI0
aI1
aI0
aI0
aI1
aI0
aI1
aI1
aI1
aI1
aI2
aI1
aI2
aI1
aI1
aa(lp51
I2
aI3
aI3
aI4
aI3
aI4
aI4
aI4
aI5
aI5
aI5
aI5
aI3
aI3
aI3
aI2
aI1
aI1
aI2
aI1
aI2
aI2
aI4
aI5
aI4
aI5
aI6
aI5
aI6
aI6
aI6
aI6
aI7
aI6
aI7
aI6
aI6
aI7
aI5
aI6
aI5
aI6
aI6
aI0
aI0
aI1
aI2
aI1
aI2
aI1
aI2
aI1
aI2
aI1
aI0
aI1
aI0
aI0
aI7
aI5
aI5
aI6
aI6
aI0
aI0
aI0
aI2
aI2
aI1
aa(lp52
I2
aI2
aI3
aI4
aI3
aI2
aI4
aI5
aI5
aI4
aI4
aI4
aI4
aI5
aI4
aI4
aI4
aI5
aI4
aI4
aI5
aI4
aI6
aI6
aI6
aI0
aI1
aI1
aI0
aI1
aI0
aI0
aI1
aI0
aI0
aI7
aI5
aI6
aI6
aI7
aI6
aI7
aI0
aI0
aI1
aI0
aI0
aI2
aI1
aI2
aI2
aa(lp53
I2
aI2
aI2
aI3
aI1
aI2
aI2
aI2
aI2
aI2
aI2
aI2
aI3
aI2
aI3
aI3
aI4
aI4
aI4
aI5
aI5
aI6
aI5
aI5
aI5
aI4
aI4
aI3
aI3
aI3
aI4
aI4
aI4
aI6
aI6
aI6
aI6
aI6
aI6
aI6
aI7
aI7
aI7
aI0
aI0
aI1
aI0
aI1
aI0
aI0
aI7
aI6
aI7
aI0
aI7
aI0
aI7
aI7
aI0
aa(lp54
I2
aI2
aI2
aI2
aI2
aI2
aI2
aI2
aI2
aI2
aI2
aI5
aI6
aI5
aI6
aI5
aI6
aI6
aI6
aI6
aI6
aI5
aI5
aI6
aI5
aI5
aI4
aI4
aI3
aI3
aI4
aI3
aI4
aI4
aI5
aI5
aI6
aI6
aI7
aI0
aI2
aI1
aI1
aI0
aI7
aI7
aI0
aI7
aI0
aI0
aI0
aI0
aI1
aI1
aI2
aI2
aI1
aa(lp55
I2
aI2
aI3
aI4
aI4
aI5
aI4
aI5
aI4
aI3
aI2
aI2
aI3
aI4
aI6
aI6
aI6
aI6
aI5
aI5
aI5
aI5
aI4
aI5
aI6
aI5
aI7
aI0
aI0
aI2
aI1
aI1
aI1
aI0
aI7
aI6
aI6
aI6
aI5
aI6
aI6
aI6
aI6
aI5
aI6
aI0
aI0
aI1
aI2
aI1
aI2
aI1
aI2
aI1
aI2
aI1
aI1
aI2
aI1
aI1
aa(lp56
I2
aI2
aI4
aI4
aI4
aI3
aI4
aI5
aI3
aI4
aI4
aI4
aI4
aI4
aI3
aI4
aI4
aI4
aI4
aI4
aI4
aI6
aI6
aI7
aI0
aI0
aI0
aI0
aI0
aI7
aI7
aI6
aI6
aI6
aI6
aI6
aI7
aI6
aI7
aI0
aI0
aI0
aI7
aI0
aI1
aI1
aI3
aI4
aI4
aI4
aI4
aI3
aI3
aI2
aI2
aI2
aI2
aI1
aI0
aI0
aI0
aI0
aI0
aI0
aI0
aa(lp57
I2
aI4
aI4
aI4
aI5
aI4
aI5
aI5
aI5
aI5
aI5
aI5
aI3
aI2
aI2
aI2
aI1
aI1
aI1
aI1
aI1
aI0
aI1
aI1
aI1
aI0
aI1
aI1
aI2
aI2
aI4
aI5
aI4
aI5
aI4
aI5
aI5
aI4
aI5
aI5
aI4
aI5
aI3
aI2
aI1
aI2
aI2
aI5
aI5
aI6
aI6
aI5
aI6
aI6
aI6
aI6
aI5
aI4
aI5
aI5
aI6
aI6
aI0
aI0
aI0
aI1
aI7
aI6
aI6
aI7
aI0
aI0
aI0
aI1
aI1
aI1
aI1
aI1
aI1
aI1
aI0
aI1
aa(lp58
I2
aI2
aI2
aI2
aI2
aI2
aI3
aI4
aI4
aI4
aI5
aI5
aI5
aI4
aI3
aI3
aI3
aI4
aI4
aI4
aI4
aI5
aI4
aI5
aI6
aI5
aI6
aI6
aI6
aI6
aI6
aI6
aI6
aI6
aI6
aI6
aI7
aI7
aI7
aI7
aI0
aI0
aI1
aI0
aI1
aI2
aI1
aI0
aI0
aI7
aI1
aI0
aI2
aI1
aI1
aI1
aI2
aI2
aa(lp59
I2
aI2
aI5
aI6
aI5
aI0
aI5
aI0
aI5
aI5
aI0
aI5
aI3
aI5
aI0
aI5
aI4
aI4
aI4
aI5
aI0
aI0
aa(lp60
I2
aI3
aI4
aI4
aI4
aI4
aI4
aI5
aI4
aI4
aI4
aI4
aI4
aI4
aI4
aI4
aI4
aI3
aI3
aI2
aa(lp61
I2
aI2
aI2
aI2
aI4
aI6
aI6
aI5
aI6
aI6
aI0
aI6
aI5
aI3
aI6
aI5
aI5
aI5
aI4
aI4
aI3
aI3
aI3
aI2
aI3
aI4
aI4
aI4
aI4
aI5
aI5
aI6
aI5
aI6
aI6
aI6
aI0
aI1
aI2
aI2
aI1
aI1
aI1
aI7
aI7
aI7
aI7
aI7
aI7
aI0
aI0
aI0
aI0
aI1
aI0
aI1
aI2
aI3
aa(lp62
I2
aI4
aI4
aI5
aI4
aI5
aI5
aI5
aI4
aI5
aI5
aI3
aI3
aI5
aI6
aI6
aI5
aI5
aI5
aI5
aI4
aI5
aI6
aI0
aI0
aI1
aI1
aI7
aI7
aI1
aI2
aI1
aI2
aI1
aI0
aI1
aI1
aI0
aI1
aI1
aI1
aI0
aI1
aa(lp63
I2
aI4
aI4
aI5
aI5
aI5
aI4
aI4
aI5
aI4
aI4
aI5
aI0
aI0
aI0
aI0
aI0
aI1
aI0
aI1
aI0
aI1
aa(lp64
I2
aI2
aI2
aI2
aI2
aI2
aI3
aI2
aI3
aI2
aI2
aI2
aI3
aI3
aI2
aI4
aI6
aI5
aI6
aI6
aI5
aI6
aI6
aI5
aI5
aI4
aI3
aI3
aI3
aI4
aI4
aI4
aI5
aI6
aI5
aI6
aI6
aI6
aI7
aI6
aI6
aI6
aI6
aI0
aI0
aI0
aI0
aI0
aI1
aI1
aI0
aI7
aI7
aI7
aI6
aI0
aI0
aI0
aI0
aI1
aI2
aI2
aa(lp65
I2
aI2
aI4
aI6
aI5
aI5
aI4
aI5
aI4
aI5
aI4
aI4
aI5
aI4
aI4
aI4
aI4
aI4
aI4
aI3
aI3
aI2
aI2
aI1
aI3
aI2
aI1
aI1
aI1
aI0
aI0
aI0
aI6
aI6
aI6
aI6
aI5
aI6
aI5
aI4
aI3
aI6
aa(lp66
I2
aI2
aI2
aI3
aI4
aI4
aI5
aI4
aI4
aI5
aI4
aI4
aI5
aI4
aI5
aI0
aI0
aI0
aI1
aI7
aI6
aI5
aI6
aI5
aI6
aI6
aI6
aI0
aI0
aI1
aI0
aI1
aI1
aI1
aI1
aI2
aa(lp67
I2
aI3
aI3
aI4
aI4
aI4
aI4
aI4
aI4
aI5
aI4
aI3
aI2
aI2
aI3
aI2
aI3
aI3
aI3
aI3
aI3
aI4
aI6
aI7
aI6
aI7
aI6
aI7
aI7
aI6
aI6
aI6
aI6
aI5
aI4
aI5
aI5
aI6
aI6
aI7
aI0
aI1
aI1
aI1
aI1
aI1
aI0
aI0
aI0
aI1
aI0
aI0
aI0
aI7
aI7
aI0
aI6
aI6
aI5
aI3
aI2
aa(lp68
I2
aI2
aI2
aI2
aI2
aI2
aI2
aI2
aI2
aI2
aI3
aI1
aI4
aI3
aI4
aI4
aI6
aI6
aI6
aI6
aI5
aI5
aI4
aI4
aI3
aI4
aI3
aI4
aI3
aI4
aI5
aI5
aI5
aI6
aI6
aI6
aI6
aI6
aI6
aI6
aI7
aI6
aI7
aI7
aI7
aI0
aI2
aI2
aI3
aI2
aI2
aI2
aI3
aI2
aI2
aI2
aI1
aI2
aI1
aI0
aI7
aI7
aI0
aI7
aI0
aI0
aI0
aI7
aI6
aI6
aI6
aI6
aI0
aI0
aa(lp69
I2
aI2
aI2
aI2
aI2
aI2
aI2
aI3
aI3
aI4
aI6
aI6
aI6
aI6
aI6
aI6
aI6
aI5
aI5
aI4
aI3
aI3
aI2
aI2
aI2
aI2
aI2
aI2
aI3
aI4
aI5
aI4
aI4
aI5
aI5
aI6
aI6
aI5
aI6
aI6
aI5
aI6
aI6
aI5
aI6
aI5
aI6
aI6
aI6
aI6
aI0
aI0
aI2
aI1
aI2
aI2
aI1
aI2
aI2
aI2
aI1
aI2
aI1
aI2
aI2
aI1
aI0
aI7
aI6
aI6
aI6
aI6
aI6
aI6
aI7
aI0
aI0
aI0
aI0
aI0
aI1
aI0
aI1
aa(lp70
I2
aI2
aI2
aI2
aI4
aI3
aI4
aI5
aI4
aI4
aI4
aI5
aI4
aI4
aI5
aI4
aI4
aI5
aI4
aI4
aI4
aI5
aI4
aI6
aI6
aI0
aI0
aI1
aI0
aI0
aI1
aI0
aI0
aI1
aI0
aI0
aI7
aI6
aI6
aI5
aI6
aI7
aI7
aI1
aI0
aI0
aI1
aI2
aI1
aI2
aa(lp71
I2
aI2
aI4
aI4
aI5
aI5
aI5
aI5
aI5
aI4
aI5
aI5
aI5
aI4
aI5
aI5
aI5
aI5
aI4
aI5
aI5
aI6
aI6
aI0
aI0
aI7
aI7
aI7
aI0
aI0
aI0
aI1
aI0
aI0
aI1
aI0
aI1
aI2
aI3
aI4
aI4
aI6
aI5
aI4
aI5
aI4
aI3
aI2
aI2
aI2
aI1
aI0
aI1
aI1
aI1
aI1
aI0
aI1
aI1
aI1
aI1
aI1
aa(lp72
I2
aI3
aI4
aI4
aI5
aI4
aI4
aI5
aI4
aI4
aI4
aI4
aI4
aI4
aI4
aI4
aI4
aI4
aI4
aI4
aI6
aI0
aI7
aI0
aI0
aI0
aI0
aI0
aI0
aI7
aI5
aI6
aI6
aI6
aI0
aI1
aI2
aI1
aI1
aI1
aI1
aI0
aI0
aI0
aI0
aa(lp73
I2
aI2
aI2
aI2
aI3
aI2
aI2
aI2
aI2
aI4
aI4
aI4
aI4
aI4
aI5
aI5
aI4
aI5
aI5
aI4
aI5
aI4
aI3
aI3
aI3
aI2
aI2
aI3
aI4
aI6
aI7
aI5
aI6
aI6
aI6
aI7
aI6
aI0
aI0
aI0
aI7
aI7
aI6
aI6
aI6
aI6
aI6
aI6
aI7
aI7
aI0
aI7
aI0
aI0
aI0
aI0
aI1
aI0
aI2
aI1
aI1
aI2
aI2
aI2
aI2
aa(lp74
I2
aI2
aI2
aI2
aI2
aI2
aI2
aI3
aI2
aI2
aI2
aI2
aI2
aI4
aI4
aI5
aI6
aI6
aI6
aI5
aI3
aI2
aI3
aI3
aI3
aI2
aI3
aI4
aI3
aI4
aI4
aI4
aI4
aI4
aI5
aI4
aI6
aI6
aI6
aI6
aI6
aI6
aI6
aI7
aI6
aI6
aI6
aI7
aI0
aI1
aI2
aI2
aI2
aI2
aI2
aI4
aI3
aI2
aI2
aI2
aI1
aI1
aI0
aI7
aI7
aI0
aI7
aI6
aI7
aI7
aI7
aI6
aI6
aI6
aI5
aI7
aI7
aI0
aI7
aI6
aI6
aI0
aI0
aI0
aa(lp75
I4
aI4
aI3
aI4
aI3
aI3
aI3
aI3
aI2
aI2
aI2
aI3
aI1
aI0
aI0
aI0
aI0
aI0
aI0
aI0
aa(lp76
I2
aI2
aI2
aI2
aI2
aI2
aI2
aI2
aI2
aI2
aI2
aI2
aI3
aI4
aI4
aI4
aI4
aI4
aI4
aI4
aI4
aI5
aI4
aI4
aI4
aI5
aI4
aI4
aI4
aI3
aI6
aI5
aI6
aI7
aI0
aI0
aI0
aI1
aI0
aI0
aI0
aI0
aI0
aI0
aI1
aI0
aI1
aI0
aI7
aI6
aI6
aI6
aI6
aI5
aI6
aI6
aI6
aI7
aI6
aI6
aI6
aI6
aI0
aI1
aI2
aa(lp77
I2
aI2
aI2
aI2
aI2
aI3
aI3
aI3
aI4
aI4
aI3
aI5
aI3
aI4
aI5
aI5
aI4
aI4
aI4
aI5
aI5
aI5
aI5
aI6
aI5
aI6
aI6
aI6
aI6
aI6
aI6
aI6
aI7
aI0
aI7
aI0
aI0
aI0
aI0
aI0
aI0
aI0
aI0
aI1
aI1
aI0
aI1
aI1
aI1
aI1
aI2
aa(lp78
I2
aI4
aI4
aI4
aI4
aI4
aI5
aI0
aI0
aI0
aI0
aI0
aa(lp79
I3
aI2
aI3
aI2
aI2
aI2
aI1
aI2
aI4
aI4
aI4
aI4
aI4
aI4
aI4
aI4
aI4
aI4
aI4
aI4
aI4
aI5
aI4
aI4
aI4
aI4
aI6
aI0
aI0
aI0
aI0
aI0
aI1
aI0
aI0
aI0
aI0
aI0
aI0
aI0
aI0
aI0
aI7
aI6
aI5
aI7
aI6
aI6
aI5
aI4
aI4
aI4
aI4
aI6
aI0
aI0
aI0
aI0
aI0
aI0
aI1
aa(lp80
I2
aI2
aI3
aI2
aI3
aI2
aI2
aI2
aI2
aI2
aI2
aI2
aI2
aI2
aI1
aI2
aI2
aI4
aI5
aI6
aI5
aI5
aI5
aI6
aI5
aI3
aI2
aI3
aI2
aI3
aI4
aI4
aI4
aI5
aI5
aI6
aI6
aI0
aI1
aI1
aI0
aI7
aI6
aI6
aI6
aI6
aI5
aI6
aI0
aI0
aI0
aI1
aI1
aI1
aI7
aI6
aI6
aI6
aI7
aI6
aI6
aI6
aI0
aI7
aa(lp81
I2
aI2
aI2
aI2
aI2
aI2
aI2
aI3
aI2
aI4
aI4
aI4
aI5
aI5
aI5
aI5
aI6
aI5
aI4
aI3
aI3
aI2
aI2
aI2
aI2
aI2
aI2
aI2
aI4
aI6
aI6
aI6
aI6
aI5
aI6
aI6
aI7
aI6
aI7
aI6
aI6
aI5
aI6
aI5
aI6
aI6
aI6
aI6
aI0
aI0
aI1
aI0
aI2
aI1
aI2
aI2
aI2
aI2
aI1
aI1
aI1
aI1
aI2
aI1
aI1
aI7
aI6
aI6
aI6
aI6
aI6
aI6
aI5
aI6
aI6
aI6
aI0
aI0
aI2
aI2
aI2
aa(lp82
I2
aI2
aI2
aI3
aI2
aI2
aI2
aI2
aI2
aI2
aI4
aI3
aI4
aI4
aI4
aI5
aI4
aI4
aI5
aI4
aI4
aI5
aI4
aI4
aI4
aI5
aI4
aI4
aI6
aI6
aI0
aI0
aI0
aI0
aI1
aI0
aI0
aI1
aI0
aI1
aI0
aI0
aI0
aI0
aI7
aI6
aI6
aI6
aI6
aI7
aI6
aI7
aI0
aa(lp83
I2
aI2
aI2
aI2
aI2
aI2
aI2
aI3
aI3
aI3
aI5
aI7
aI7
aI7
aI6
aI6
aI6
aI6
aI6
aI5
aI5
aI5
aI5
aI4
aI4
aI5
aI4
aI4
aI4
aI3
aI4
aI4
aI3
aI4
aI3
aI3
aI1
aI0
aI0
aI0
aI0
aI0
aI1
aI1
aI2
aI2
aI2
aI3
aI3
aI2
aI4
aI4
aI4
aI5
aI5
aI5
aI5
aI6
aI6
aI6
aI6
aI6
aI6
aI7
aI0
aI7
aI7
aI0
aI0
aI0
aI7
aI0
aI0
aI0
aI0
aI0
aI1
aI0
aI1
aI1
aI1
aa(lp84
I2
aI2
aI2
aI2
aI2
aI2
aI2
aI3
aI2
aI4
aI3
aI4
aI4
aI4
aI5
aI5
aI5
aI3
aI3
aI4
aI3
aI4
aI4
aI5
aI5
aI5
aI6
aI5
aI6
aI6
aI6
aI6
aI6
aI6
aI7
aI7
aI7
aI0
aI0
aI0
aI0
aI1
aI1
aI0
aI7
aI0
aI7
aI0
aI1
aI0
aI1
aI1
aa(lp85
I2
aI2
aI2
aI2
aI2
aI2
aI2
aI2
aI2
aI2
aI2
aI2
aI2
aI2
aI3
aI3
aI4
aI4
aI4
aI5
aI6
aI5
aI5
aI4
aI4
aI4
aI4
aI4
aI5
aI5
aI5
aI5
aI6
aI5
aI5
aI6
aI6
aI6
aI0
aI1
aI2
aI1
aI1
aI1
aI1
aI1
aI1
aI7
aI6
aI7
aI6
aI6
aI6
aI6
aI0
aI0
aI1
aI2
aI2
aI2
aI2
aI1
aI2
aI2
aI1
aI7
aI6
aI7
aI6
aI6
aI6
aI6
aI6
aI6
aI6
aI6
aI6
aI0
aa(lp86
I3
aI2
aI2
aI2
aI2
aI2
aI2
aI2
aI5
aI6
aI6
aI6
aI6
aI6
aI6
aI6
aI6
aI0
aI5
aI5
aI0
aI5
aI4
aI4
aI3
aI2
aI2
aI3
aI4
aI4
aI4
aI5
aI0
aI0
aI0
aI7
aI6
aI6
aI6
aI6
aI0
aI1
aa(lp87
I2
aI2
aI2
aI2
aI3
aI2
aI4
aI4
aI4
aI3
aI3
aI4
aI3
aI4
aI4
aI3
aI5
aI4
aI4
aI4
aI5
aI4
aI5
aI6
aI5
aI6
aI6
aI6
aI6
aI6
aI6
aI7
aI7
aI7
aI0
aI0
aI7
aI1
aI7
aI1
aI0
aI0
aI0
aI0
aI1
aI0
aI1
aI1
aI0
aa(lp88
I2
aI2
aI2
aI2
aI2
aI2
aI2
aI2
aI2
aI2
aI2
aI3
aI4
aI3
aI5
aI5
aI5
aI5
aI5
aI5
aI4
aI3
aI3
aI3
aI4
aI3
aI4
aI4
aI5
aI5
aI6
aI6
aI6
aI6
aI6
aI6
aI6
aI6
aI6
aI6
aI6
aI6
aI6
aI7
aI7
aI0
aI0
aI1
aI1
aI2
aI2
aI5
aI5
aI3
aI3
aI2
aI2
aI2
aI2
aI2
aI2
aI2
aI2
aI2
aI1
aI1
aI7
aI7
aI7
aI0
aI7
aI6
aI7
aI1
aI1
aI1
aI1
aI1
aI7
aI6
aI6
aI6
aI6
aI6
aI6
aI6
aI5
aI5
aI4
aI5
aI6
aI6
aI0
aI0
aI0
aI1
aI2
aI1
aI0
aI2
aa(lp89
I2
aI4
aI3
aI2
aI2
aI2
aI2
aI2
aI2
aI3
aI2
aI3
aI4
aI6
aI5
aI6
aI6
aI5
aI6
aI6
aI5
aI5
aI4
aI4
aI5
aI4
aI4
aI4
aI5
aI4
aI4
aI5
aI6
aI7
aI7
aI0
aI0
aI0
aI0
aI0
aI1
aI0
aI1
aI1
aI1
aI1
aI0
aI7
aI6
aI0
aI1
aI0
aa(lp90
I2
aI2
aI2
aI2
aI3
aI4
aI4
aI4
aI4
aI4
aI4
aI5
aI5
aI3
aI3
aI4
aI4
aI5
aI4
aI5
aI5
aI5
aI6
aI5
aI6
aI6
aI6
aI6
aI6
aI6
aI6
aI6
aI6
aI6
aI6
aI6
aI7
aI0
aI0
aI0
aI0
aI2
aI2
aI1
aI2
aI2
aI2
aI2
aI2
aI2
aI2
aI2
aI2
aI2
aI1
aI7
aI7
aI6
aI6
aI6
aI0
aI0
aI0
aI0
aI0
aI0
aI0
aI2
aI1
aI1
aI2
aa(lp91
I2
aI2
aI2
aI2
aI2
aI2
aI3
aI2
aI2
aI3
aI2
aI4
aI4
aI4
aI6
aI5
aI6
aI5
aI6
aI6
aI5
aI6
aI5
aI4
aI3
aI2
aI4
aI3
aI4
aI5
aI5
aI4
aI6
aI6
aI5
aI6
aI0
aI1
aI1
aI1
aI0
aI7
aI7
aI7
aI7
aI1
aI1
aI2
aI1
aI2
aI2
aI1
aI2
aI1
aI0
aI7
aI6
aI6
aI6
aI7
aI6
aI6
aa(lp92
I2
aI2
aI2
aI2
aI2
aI2
aI2
aI2
aI2
aI2
aI3
aI5
aI4
aI4
aI5
aI4
aI5
aI6
aI5
aI6
aI5
aI6
aI5
aI6
aI5
aI6
aI6
aI6
aI6
aI6
aI7
aI0
aI7
aI0
aI1
aI0
aI1
aI1
aI1
aI1
aI2
aa(lp93
I2
aI2
aI2
aI2
aI2
aI3
aI4
aI3
aI4
aI4
aI5
aI4
aI5
aI4
aI5
aI5
aI4
aI5
aI5
aI3
aI3
aI2
aa(lp94
I2
aI2
aI2
aI2
aI2
aI2
aI2
aI2
aI2
aI3
aI4
aI4
aI5
aI6
aI7
aI6
aI7
aI5
aI6
aI6
aI5
aI4
aI4
aI4
aI3
aI2
aI1
aI3
aI2
aI2
aI4
aI4
aI3
aI4
aI4
aI4
aI4
aI5
aI5
aI5
aI5
aI6
aI6
aI6
aI6
aI6
aI7
aI7
aI1
aI2
aI3
aI2
aI2
aI2
aI1
aI2
aI1
aI1
aI0
aI7
aI0
aI7
aI7
aI6
aI5
aI5
aI5
aI5
aI6
aI0
aI0
aI1
aI0
aI0
aI0
aI0
aI0
aI1
aI7
aI6
aI6
aI6
aI0
aI1
aI2
aI2
aa(lp95
I2
aI2
aI2
aI2
aI3
aI4
aI4
aI4
aI4
aI4
aI5
aI4
aI5
aI5
aI5
aI4
aI5
aI5
aI4
aI5
aI4
aI5
aI5
aI6
aI0
aI1
aI0
aI0
aI1
aI0
aI1
aI1
aI0
aI1
aI1
aI0
aI1
aI0
aI0
aI7
aI5
aI6
aI6
aI6
aI5
aI6
aI6
aI0
aI0
aI0
aI1
aI2
aI2
aI2
aI2
aa(lp96
I2
aI2
aI2
aI2
aI3
aI2
aI1
aI2
aI2
aI2
aI2
aI2
aI2
aI4
aI4
aI4
aI5
aI5
aI3
aI4
aI3
aI4
aI5
aI4
aI4
aI4
aI4
aI4
aI5
aI4
aI5
aI5
aI6
aI6
aI0
aI1
aI1
aI1
aI0
aI0
aI1
aI0
aI0
aI0
aI0
aI7
aI6
aI5
aI5
aI6
aI5
aI5
aI6
aI6
aI7
aI1
aI1
aI1
aI1
aI2
aI1
aI2
aI1
aI1
aI7
aI6
aI6
aI6
aI6
aI6
aI6
aI6
aI6
aI7
aa(lp97
I2
aI2
aI2
aI2
aI2
aI2
aI3
aI3
aI2
aI3
aI5
aI5
aI5
aI5
aI6
aI5
aI5
aI5
aI3
aI4
aI4
aI3
aI5
aI4
aI4
aI5
aI5
aI6
aI6
aI6
aI6
aI6
aI0
aI7
aI1
aI0
aI1
aI1
aI0
aI1
aI7
aI7
aI7
aI7
aI0
aI0
aI1
aI0
aI1
aI1
aI2
aa(lp98
I2
aI2
aI2
aI2
aI2
aI2
aI3
aI3
aI5
aI4
aI5
aI5
aI6
aI5
aI3
aI2
aI3
aI4
aI3
aI4
aI5
aI4
aI4
aI5
aI5
aI5
aI5
aI6
aI6
aI0
aI1
aI1
aI1
aI1
aI0
aI0
aI0
aI7
aI7
aI6
aI7
aI6
aI7
aI0
aI2
aI1
aI2
aI2
aI1
aI1
aI7
aI6
aI6
aI6
aI0
aa(lp99
I2
aI2
aI2
aI2
aI2
aI2
aI2
aI4
aI6
aI5
aI5
aI5
aI6
aI5
aI5
aI3
aI2
aI3
aI3
aI3
aI3
aI3
aI4
aI4
aI5
aI4
aI5
aI6
aI5
aI5
aI6
aI6
aI6
aI6
aI6
aI6
aI0
aI1
aI2
aI2
aI2
aI2
aI2
aI1
aI1
aI0
aI0
aI1
aI7
aI7
aI7
aI6
aI7
aI6
aI7
aI0
aI0
aI0
aI1
aI1
aI0
aa(lp100
I2
aI2
aI2
aI2
aI2
aI3
aI2
aI3
aI3
aI4
aI3
aI5
aI4
aI4
aI5
aI4
aI3
aI2
aI3
aI3
aI3
aI3
aI4
aI5
aI6
aI6
aI7
aI0
aI7
aI7
aI6
aI5
aI5
aI6
aI5
aI6
aI6
aI6
aI6
aI6
aI6
aI7
aI0
aI7
aI0
aI1
aI0
aI2
aI2
aI1
aI2
aI2
aI2
aI2
aI2
aI2
aI1
aI0
aI0
aI1
aI7
aI7
aI7
aI6
aI6
aI6
aI5
aI6
aI6
aI0
aI1
aa(lp101
I2
aI2
aI4
aI4
aI6
aI6
aI6
aI0
aI5
aI0
aI6
aI6
aI5
aI3
aI2
aa(lp102
I2
aI2
aI2
aI2
aI2
aI2
aI2
aI2
aI3
aI3
aI3
aI3
aI4
aI4
aI4
aI5
aI5
aI4
aI4
aI4
aI4
aI5
aI5
aI4
aI6
aI5
aI5
aI6
aI5
aI6
aI6
aI6
aI6
aI6
aI7
aI7
aI0
aI7
aI0
aI0
aI0
aI0
aI1
aI0
aI7
aI0
aI1
aI0
aI1
aI1
aI1
aI0
aa(lp103
I2
aI4
aI5
aI4
aI4
aI4
aI5
aI4
aI4
aI4
aI3
aI2
aI2
aI2
aI1
aI0
aI0
aI2
aI4
aI4
aI4
aI3
aI4
aI6
aI5
aI4
aI4
aI4
aI5
aI4
aI4
aI6
aI0
aI0
aI0
aI0
aI0
aI0
aI0
aI7
aI6
aI6
aI6
aI6
aI0
aI0
aI0
aI0
aI1
aI0
aI0
aI1
aI0
aI0
aa(lp104
I2
aI2
aI2
aI2
aI3
aI4
aI4
aI3
aI4
aI5
aI5
aI5
aI4
aI5
aI5
aI4
aI5
aI5
aI5
aI5
aI5
aI5
aI4
aI6
aI6
aI0
aI0
aI1
aI1
aI0
aI1
aI1
aI1
aI1
aI1
aI1
aI7
aI6
aI5
aI6
aI6
aI6
aI6
aI7
aI0
aI1
aI0
aI1
aI1
aI2
aI1
aI2
aa(lp105
I3
aI4
aI4
aI5
aI6
aI5
aI6
aI6
aI6
aI5
aI6
aI5
aI6
aI6
aI5
aI4
aI4
aI3
aI3
aI4
aI4
aI4
aI5
aI6
aI6
aI6
aI6
aI6
aI6
aI7
aI1
aI2
aI2
aI2
aI1
aI7
aI0
aI0
aI7
aI1
aI0
aI1
aI0
aI1
aI2
aI2
aI1
aI2
aI2
aI1
aI2
aI1
aI2
aI2
aa(lp106
I2
aI2
aI2
aI2
aI2
aI2
aI2
aI2
aI2
aI2
aI2
aI2
aI2
aI3
aI2
aI5
aI6
aI6
aI6
aI6
aI6
aI7
aI6
aI5
aI6
aI6
aI6
aI5
aI5
aI5
aI3
aI2
aI2
aI2
aI3
aI2
aI2
aI2
aI2
aI3
aI2
aI2
aI3
aI2
aI3
aI3
aI4
aI4
aI4
aI4
aI4
aI5
aI6
aI6
aI6
aI6
aI6
aI7
aI1
aI2
aI2
aI2
aI1
aI0
aI0
aI7
aI7
aI6
aI6
aI7
aI6
aI6
aI6
aI6
aI6
aI6
aI7
aI6
aI6
aI6
aI7
aI6
aI0
aI0
aI1
aI1
aI7
aI0
aI2
aa(lp107
I2
aI2
aI2
aI2
aI2
aI2
aI2
aI3
aI2
aI3
aI4
aI4
aI5
aI4
aI5
aI5
aI4
aI3
aI2
aI4
aI4
aI3
aI4
aI4
aI4
aI5
aI4
aI6
aI0
aI0
aI0
aI0
aI0
aI0
aI7
aI7
aI7
aI6
aI0
aI1
aI2
aI1
aI1
aI0
aI0
aI7
aI6
aI6
aI7
aI6
aI6
aI6
aa(lp108
I2
aI2
aI2
aI4
aI6
aI5
aI6
aI5
aI5
aI5
aI3
aI2
aI3
aI2
aI3
aI3
aI4
aI3
aI4
aI4
aI5
aI4
aI5
aI5
aI5
aI6
aI5
aI6
aI6
aI7
aI0
aI7
aI7
aI0
aI0
aI0
aI0
aI0
aI0
aI0
aI0
aI0
aI0
aI1
aI2
aI1
aI1
aI1
aI2
aa(lp109
I2
aI2
aI2
aI4
aI4
aI6
aI6
aI6
aI5
aI6
aI5
aI4
aI3
aI2
aI3
aI3
aI2
aI1
aI0
aI1
aI1
aI0
aI1
aI2
aI4
aI4
aI5
aI4
aI5
aI5
aI5
aI4
aI3
aI4
aI4
aI3
aI4
aI5
aI5
aI5
aI5
aI6
aI6
aI6
aI6
aI7
aI1
aI7
aI1
aI0
aI1
aI0
aI1
aI1
aI7
aI7
aI6
aI7
aI7
aI7
aI0
aI1
aI1
aI1
aI2
aI2
aa(lp110
I2
aI2
aI2
aI2
aI2
aI2
aI2
aI2
aI2
aI4
aI5
aI4
aI5
aI5
aI5
aI4
aI5
aI4
aI4
aI5
aI4
aI5
aI4
aI5
aI4
aI4
aI5
aI6
aI0
aI0
aI1
aI0
aI0
aI1
aI0
aI1
aI0
aI1
aI0
aI7
aI5
aI6
aI5
aI6
aI7
aI6
aI7
aI0
aI1
aI0
aI1
aI1
aI2
aa(lp111
I2
aI2
aI2
aI2
aI3
aI4
aI4
aI4
aI4
aI5
aI4
aI4
aI4
aI3
aI3
aI2
aI3
aI4
aI4
aI4
aI4
aI5
aI5
aI5
aI6
aI6
aI6
aI6
aI7
aI6
aI7
aI0
aI0
aI1
aI1
aI0
aI7
aI6
aI6
aI7
aI6
aI0
aI0
aI0
aI1
aI0
aI1
aI0
aI1
aI1
aa(lp112
I2
aI2
aI2
aI2
aI4
aI3
aI4
aI5
aI4
aI5
aI4
aI3
aI3
aI3
aI3
aI4
aI4
aI4
aI4
aI5
aI5
aI5
aI6
aI5
aI6
aI6
aI6
aI0
aI1
aI2
aI2
aI1
aI1
aI1
aI0
aI0
aI7
aI7
aI7
aI6
aI7
aI0
aI1
aI1
aI0
aI1
aI7
aI6
aI6
aI6
aI0
aI6
aI5
aI3
aI5
aI6
aI5
aI4
aI4
aI6
aI7
aI1
aI0
aI1
aI1
aa(lp113
I2
aI3
aI2
aI2
aI2
aI1
aI2
aI2
aI4
aI4
aI4
aI4
aI5
aI5
aI4
aI5
aI5
aI5
aI5
aI4
aI5
aI5
aI4
aI5
aI5
aI5
aI5
aI6
aI6
aI0
aI0
aI0
aI1
aI2
aI1
aI0
aI1
aI1
aI0
aI1
aI0
aI1
aI2
aI1
aI0
aI1
aI7
aI6
aI6
aI5
aI5
aI6
aI5
aI5
aI5
aI6
aI7
aI0
aI1
aI0
aI2
aI1
aI2
aI1
aI1
aa(lp114
I2
aI2
aI3
aI2
aI2
aI4
aI5
aI5
aI5
aI5
aI4
aI3
aI2
aI3
aI3
aI4
aI4
aI4
aI5
aI5
aI5
aI5
aI5
aI6
aI5
aI6
aI6
aI7
aI0
aI0
aI1
aI0
aI0
aI1
aI0
aI1
aI0
aI7
aI6
aI6
aI7
aI0
aI0
aI0
aI1
aI1
aI2
aI1
aI2
aa.